
SD.elf:     file format elf32-littlenios2
SD.elf
architecture: nios2, flags 0x00000112:
EXEC_P, HAS_SYMS, D_PAGED
start address 0x002801b8

Program Header:
    LOAD off    0x00001000 vaddr 0x00280000 paddr 0x00280000 align 2**12
         filesz 0x00000020 memsz 0x00000020 flags r-x
    LOAD off    0x00001020 vaddr 0x00280020 paddr 0x00280020 align 2**12
         filesz 0x00008ddc memsz 0x00008ddc flags r-x
    LOAD off    0x00009dfc vaddr 0x00288dfc paddr 0x0028ac74 align 2**12
         filesz 0x00001e78 memsz 0x00001e78 flags rw-
    LOAD off    0x0000caec vaddr 0x0028caec paddr 0x0028caec align 2**12
         filesz 0x00000000 memsz 0x00000304 flags rw-

Sections:
Idx Name          Size      VMA       LMA       File off  Algn
  0 .entry        00000020  00280000  00280000  00001000  2**5
                  CONTENTS, ALLOC, LOAD, READONLY, CODE
  1 .exceptions   00000198  00280020  00280020  00001020  2**2
                  CONTENTS, ALLOC, LOAD, READONLY, CODE
  2 .text         00008810  002801b8  002801b8  000011b8  2**2
                  CONTENTS, ALLOC, LOAD, READONLY, CODE
  3 .rodata       00000434  002889c8  002889c8  000099c8  2**2
                  CONTENTS, ALLOC, LOAD, READONLY, DATA
  4 .rwdata       00001e78  00288dfc  0028ac74  00009dfc  2**2
                  CONTENTS, ALLOC, LOAD, DATA, SMALL_DATA
  5 .bss          00000304  0028caec  0028caec  0000caec  2**2
                  ALLOC, SMALL_DATA
  6 .comment      00000026  00000000  00000000  0000bc74  2**0
                  CONTENTS, READONLY
  7 .debug_aranges 000009f8  00000000  00000000  0000bca0  2**3
                  CONTENTS, READONLY, DEBUGGING
  8 .debug_pubnames 000013ee  00000000  00000000  0000c698  2**0
                  CONTENTS, READONLY, DEBUGGING
  9 .debug_info   0001ef5b  00000000  00000000  0000da86  2**0
                  CONTENTS, READONLY, DEBUGGING
 10 .debug_abbrev 00005acb  00000000  00000000  0002c9e1  2**0
                  CONTENTS, READONLY, DEBUGGING
 11 .debug_line   0000f3b0  00000000  00000000  000324ac  2**0
                  CONTENTS, READONLY, DEBUGGING
 12 .debug_frame  000015d4  00000000  00000000  0004185c  2**2
                  CONTENTS, READONLY, DEBUGGING
 13 .debug_str    000019ea  00000000  00000000  00042e30  2**0
                  CONTENTS, READONLY, DEBUGGING
 14 .debug_loc    000049c2  00000000  00000000  0004481a  2**0
                  CONTENTS, READONLY, DEBUGGING
 15 .debug_alt_sim_info 00000020  00000000  00000000  000491dc  2**2
                  CONTENTS, READONLY, DEBUGGING
 16 .debug_ranges 000002f8  00000000  00000000  00049200  2**3
                  CONTENTS, READONLY, DEBUGGING
 17 .thread_model 00000003  00000000  00000000  0004c33e  2**0
                  CONTENTS, READONLY
 18 .cpu          00000005  00000000  00000000  0004c341  2**0
                  CONTENTS, READONLY
 19 .qsys         00000001  00000000  00000000  0004c346  2**0
                  CONTENTS, READONLY
 20 .simulation_enabled 00000001  00000000  00000000  0004c347  2**0
                  CONTENTS, READONLY
 21 .stderr_dev   00000009  00000000  00000000  0004c348  2**0
                  CONTENTS, READONLY
 22 .stdin_dev    00000009  00000000  00000000  0004c351  2**0
                  CONTENTS, READONLY
 23 .stdout_dev   00000009  00000000  00000000  0004c35a  2**0
                  CONTENTS, READONLY
 24 .sopc_system_name 00000005  00000000  00000000  0004c363  2**0
                  CONTENTS, READONLY
 25 .quartus_project_dir 00000028  00000000  00000000  0004c368  2**0
                  CONTENTS, READONLY
SYMBOL TABLE:
00280000 l    d  .entry	00000000 .entry
00280020 l    d  .exceptions	00000000 .exceptions
002801b8 l    d  .text	00000000 .text
002889c8 l    d  .rodata	00000000 .rodata
00288dfc l    d  .rwdata	00000000 .rwdata
0028caec l    d  .bss	00000000 .bss
00000000 l    d  .comment	00000000 .comment
00000000 l    d  .debug_aranges	00000000 .debug_aranges
00000000 l    d  .debug_pubnames	00000000 .debug_pubnames
00000000 l    d  .debug_info	00000000 .debug_info
00000000 l    d  .debug_abbrev	00000000 .debug_abbrev
00000000 l    d  .debug_line	00000000 .debug_line
00000000 l    d  .debug_frame	00000000 .debug_frame
00000000 l    d  .debug_str	00000000 .debug_str
00000000 l    d  .debug_loc	00000000 .debug_loc
00000000 l    d  .debug_alt_sim_info	00000000 .debug_alt_sim_info
00000000 l    d  .debug_ranges	00000000 .debug_ranges
002801f0 l       .text	00000000 alt_after_alt_main
00000000 l    df *ABS*	00000000 alt_irq_handler.c
00000000 l    df *ABS*	00000000 lollllllll.c
00281080 l     F .text	00000118 alt_alarm_func
00281198 l     F .text	0000041c translate_code
00000000 l    df *ABS*	00000000 malloc.c
00000000 l    df *ABS*	00000000 mallocr.c
00000000 l    df *ABS*	00000000 putchar.c
00000000 l    df *ABS*	00000000 puts.c
00000000 l    df *ABS*	00000000 sbrkr.c
00000000 l    df *ABS*	00000000 strcpy.c
00000000 l    df *ABS*	00000000 strlen.c
00000000 l    df *ABS*	00000000 mallocr.c
00000000 l    df *ABS*	00000000 fvwrite.c
00000000 l    df *ABS*	00000000 impure.c
002894d0 l     O .rwdata	00000400 impure_data
00000000 l    df *ABS*	00000000 int_errno.c
00000000 l    df *ABS*	00000000 memchr.c
00000000 l    df *ABS*	00000000 memcpy.c
00000000 l    df *ABS*	00000000 memmove.c
00000000 l    df *ABS*	00000000 putc.c
00000000 l    df *ABS*	00000000 mallocr.c
00000000 l    df *ABS*	00000000 wbuf.c
00000000 l    df *ABS*	00000000 wsetup.c
00000000 l    df *ABS*	00000000 fflush.c
00000000 l    df *ABS*	00000000 findfp.c
0028373c l     F .text	00000058 std
00283848 l     F .text	00000008 __fp_lock
00283850 l     F .text	00000008 __fp_unlock
00000000 l    df *ABS*	00000000 fwalk.c
00000000 l    df *ABS*	00000000 makebuf.c
00000000 l    df *ABS*	00000000 memset.c
00000000 l    df *ABS*	00000000 stdio.c
00000000 l    df *ABS*	00000000 writer.c
00000000 l    df *ABS*	00000000 closer.c
00000000 l    df *ABS*	00000000 fclose.c
00000000 l    df *ABS*	00000000 fstatr.c
00000000 l    df *ABS*	00000000 isattyr.c
00000000 l    df *ABS*	00000000 lseekr.c
00000000 l    df *ABS*	00000000 readr.c
00000000 l    df *ABS*	00000000 alt_close.c
002843d0 l     F .text	00000060 alt_get_errno
00000000 l    df *ABS*	00000000 alt_dev.c
00284430 l     F .text	0000002c alt_dev_null_write
00000000 l    df *ABS*	00000000 alt_errno.c
00000000 l    df *ABS*	00000000 alt_find_dev.c
00000000 l    df *ABS*	00000000 alt_fstat.c
002845c4 l     F .text	00000060 alt_get_errno
00000000 l    df *ABS*	00000000 alt_irq_register.c
00000000 l    df *ABS*	00000000 alt_irq_vars.c
00000000 l    df *ABS*	00000000 alt_isatty.c
002848a4 l     F .text	00000060 alt_get_errno
00000000 l    df *ABS*	00000000 alt_load.c
00284984 l     F .text	0000006c alt_load_section
00000000 l    df *ABS*	00000000 alt_lseek.c
00284ae0 l     F .text	00000060 alt_get_errno
00000000 l    df *ABS*	00000000 alt_main.c
00000000 l    df *ABS*	00000000 alt_malloc_lock.c
00000000 l    df *ABS*	00000000 alt_printf.c
00000000 l    df *ABS*	00000000 alt_putchar.c
00000000 l    df *ABS*	00000000 alt_read.c
00284fa4 l     F .text	00000060 alt_get_errno
00000000 l    df *ABS*	00000000 alt_release_fd.c
00000000 l    df *ABS*	00000000 alt_sbrk.c
0028ac68 l     O .rwdata	00000004 heap_end
00000000 l    df *ABS*	00000000 alt_write.c
00285240 l     F .text	00000060 alt_get_errno
00000000 l    df *ABS*	00000000 alt_sys_init.c
00289a78 l     O .rwdata	00001060 jtag_uart
0028aad8 l     O .rwdata	0000002c led_green
0028ab04 l     O .rwdata	00000038 ps2
0028ab3c l     O .rwdata	00000034 usb
0028ab70 l     O .rwdata	00000048 char_buffer
0028abb8 l     O .rwdata	00000054 pixel_buffer
0028ac0c l     O .rwdata	0000002c sd_card_interface
00285608 l     F .text	00000038 alt_dev_reg
00000000 l    df *ABS*	00000000 altera_avalon_jtag_uart_fd.c
00000000 l    df *ABS*	00000000 altera_avalon_jtag_uart_init.c
00285840 l     F .text	0000022c altera_avalon_jtag_uart_irq
00285a6c l     F .text	000000b0 altera_avalon_jtag_uart_timeout
00000000 l    df *ABS*	00000000 altera_avalon_jtag_uart_ioctl.c
00000000 l    df *ABS*	00000000 altera_avalon_jtag_uart_read.c
00000000 l    df *ABS*	00000000 altera_avalon_jtag_uart_write.c
00000000 l    df *ABS*	00000000 altera_up_avalon_video_character_buffer_with_dma.c
00000000 l    df *ABS*	00000000 altera_up_avalon_video_pixel_buffer_dma.c
00000000 l    df *ABS*	00000000 alt_alarm_start.c
00000000 l    df *ABS*	00000000 alt_dcache_flush_all.c
00000000 l    df *ABS*	00000000 alt_dev_llist_insert.c
00287b7c l     F .text	00000060 alt_get_errno
00000000 l    df *ABS*	00000000 alt_do_ctors.c
00000000 l    df *ABS*	00000000 alt_do_dtors.c
00000000 l    df *ABS*	00000000 alt_icache_flush_all.c
00000000 l    df *ABS*	00000000 alt_io_redirect.c
00287cd4 l     F .text	000000c4 alt_open_fd
00000000 l    df *ABS*	00000000 alt_open.c
00287e10 l     F .text	000000dc alt_file_locked
00288074 l     F .text	00000060 alt_get_errno
00000000 l    df *ABS*	00000000 alt_tick.c
00000000 l    df *ABS*	00000000 altera_nios2_qsys_irq.c
00000000 l    df *ABS*	00000000 alt_find_file.c
00000000 l    df *ABS*	00000000 alt_get_fd.c
00000000 l    df *ABS*	00000000 alt_icache_flush.c
00000000 l    df *ABS*	00000000 atexit.c
00000000 l    df *ABS*	00000000 exit.c
00000000 l    df *ABS*	00000000 memcmp.c
00000000 l    df *ABS*	00000000 strcmp.c
00000000 l    df *ABS*	00000000 __atexit.c
00000000 l    df *ABS*	00000000 __call_atexit.c
002887b0 l     F .text	00000004 register_fini
00000000 l    df *ABS*	00000000 alt_exit.c
00288964 l     F .text	00000040 alt_sim_halt
00281d1c g     F .text	0000001c putchar
00284174 g     F .text	00000070 _isatty_r
00284b40 g     F .text	0000006c alt_main
00281e64 g     F .text	0000008c strcpy
00287058 g     F .text	000003d0 alt_up_pixel_buffer_dma_draw_vline
00281d40 g     F .text	000000a0 _puts_r
0028cb60 g     O .bss	00000100 alt_irq
00280a90 g     F .text	00000058 alt_up_ps2_disable_read_interrupt
002841e4 g     F .text	00000078 _lseek_r
0028ac74 g       *ABS*	00000000 __flash_rwdata_start
0028cdf0 g       *ABS*	00000000 __alt_heap_start
00283db0 g     F .text	00000068 __sseek
002837a4 g     F .text	000000a4 __sinit
0028627c g     F .text	00000114 alt_up_char_buffer_string
00283284 g     F .text	00000130 __swbuf_r
00280838 g     F .text	00000034 read_CE_bit
002838a4 g     F .text	00000068 __sfmoreglue
00284bcc g     F .text	00000020 __malloc_unlock
00280c3c g     F .text	000000b0 alt_up_ps2_read_data_byte_timeout
002861ac g     F .text	000000d0 alt_up_char_buffer_draw
002829c4 g     F .text	000000e0 memmove
00288dfc g     O .rwdata	00000198 key_table
00283894 g     F .text	00000010 _cleanup
0028642c g     F .text	000001a0 alt_up_pixel_buffer_dma_draw
00000000  w      *UND*	00000000 __errno
002863ec g     F .text	00000040 alt_up_pixel_buffer_dma_open_dev
00280000 g     F .entry	0000001c __reset
002801f4 g     F .text	00000078 get_multi_byte_make_code_index
00280020 g       *ABS*	00000000 __flash_exceptions_start
00284100 g     F .text	00000074 _fstat_r
0028cb1c g     O .bss	00000004 errno
002805ec g     F .text	00000060 set_keyboard_rate
0028cb28 g     O .bss	00000004 alt_argv
00292c38 g       *ABS*	00000000 _gp
002865cc g     F .text	00000058 alt_up_pixel_buffer_dma_change_back_buffer_address
00280754 g     F .text	00000080 reset_keyboard
002898f8 g     O .rwdata	00000180 alt_fd_list
00281d38 g     F .text	00000008 _putchar_r
0028445c g     F .text	00000094 alt_find_dev
00282924 g     F .text	000000a0 memcpy
00286390 g     F .text	0000005c alt_up_char_buffer_clear
00283888 g     F .text	0000000c _cleanup_r
00287d98 g     F .text	00000078 alt_io_redirect
002889c8 g       *ABS*	00000000 __DTOR_END__
0028caec g     O .bss	00000004 ps2_keyboard
00281de0 g     F .text	00000014 puts
0028ac38 g     O .rwdata	00000004 red_LED_ptr
0028667c g     F .text	00000034 alt_up_pixel_buffer_dma_check_swap_buffers_status
00285c84 g     F .text	00000224 altera_avalon_jtag_uart_read
002815c8 g     F .text	00000014 malloc
002847e4 g     F .text	000000c0 isatty
00286d08 g     F .text	00000350 alt_up_pixel_buffer_dma_draw_hline
0028caf0 g     O .bss	00000004 coordinateY
00288470 g     F .text	00000090 alt_icache_flush
0028cb10 g     O .bss	00000004 __malloc_top_pad
002823a4 g     F .text	0000049c __sfvwrite_r
00281df4 g     F .text	00000070 _sbrk_r
002874ec g     F .text	000000d0 helper_plot_pixel
0028425c g     F .text	00000078 _read_r
0028ac5c g     O .rwdata	00000004 alt_max_fd
00283fdc g     F .text	00000110 _fclose_r
0028086c g     F .text	00000034 read_num_bytes_available
00283708 g     F .text	00000034 fflush
00288f94 g     O .rwdata	00000066 ascii_codes
0028cb14 g     O .bss	00000004 __malloc_max_sbrked_mem
00284624 g     F .text	000001c0 alt_irq_register
002807d4 g     F .text	00000034 read_RI_bit
002866b0 g     F .text	00000164 alt_up_pixel_buffer_dma_clear_screen
002849f0 g     F .text	000000f0 lseek
0028ac48 g     O .rwdata	00000004 _global_impure_ptr
00282c90 g     F .text	000005f4 _realloc_r
0028cdf0 g       *ABS*	00000000 __bss_end
00286814 g     F .text	000004f4 alt_up_pixel_buffer_dma_draw_box
0028816c g     F .text	0000010c alt_tick
002808d4 g     F .text	0000002c read_data_byte
00283870 g     F .text	00000018 __fp_lock_all
002880d4 g     F .text	00000098 alt_alarm_stop
00280808 g     F .text	00000030 read_RE_bit
0028cb20 g     O .bss	00000004 alt_irq_active
00280000 g       *ABS*	00000000 __alt_mem_onchip_mem
002800ec g     F .exceptions	000000cc alt_irq_handler
002898d0 g     O .rwdata	00000028 alt_dev_null
00280ae8 g     F .text	00000078 alt_up_ps2_write_data_byte
00287aac g     F .text	0000001c alt_dcache_flush_all
00287428 g     F .text	000000c4 alt_up_pixel_buffer_dma_draw_rectangle
0028ac74 g       *ABS*	00000000 __ram_rwdata_end
00289060 g     O .rwdata	00000066 multi_byte_make_code
0028ac54 g     O .rwdata	00000008 alt_dev_list
00285120 g     F .text	00000120 write
00282ba8 g     F .text	000000e8 _putc_r
002875bc g     F .text	0000039c alt_up_pixel_buffer_dma_draw_line
00288dfc g       *ABS*	00000000 __ram_rodata_end
002844f0 g     F .text	000000d4 fstat
0028cdf0 g       *ABS*	00000000 end
00280e5c g     F .text	000000a8 alt_up_ps2_write_fd
002860e8 g     F .text	00000084 alt_up_char_buffer_init
00285788 g     F .text	000000b8 altera_avalon_jtag_uart_init
002889c4 g       *ABS*	00000000 __CTOR_LIST__
002cb000 g       *ABS*	00000000 __alt_stack_pointer
00285ea8 g     F .text	00000240 altera_avalon_jtag_uart_write
00283794 g     F .text	00000004 __sfp_lock_acquire
00282840 g     F .text	000000e4 memchr
00282090 g     F .text	00000314 _free_r
00284bec g     F .text	00000258 alt_printf
002887b4 g     F .text	000001b0 __call_exitprocs
0028064c g     F .text	00000108 translate_make_code
0028ac40 g     O .rwdata	00000004 __malloc_sbrk_base
002801b8 g     F .text	0000003c _start
0028cb30 g     O .bss	00000004 _alt_tick_rate
0028cb34 g     O .bss	00000004 _alt_nticks
00284e84 g     F .text	00000120 read
002852d4 g     F .text	00000334 alt_sys_init
0028867c g     F .text	00000134 __register_exitproc
00280d68 g     F .text	00000058 alt_up_ps2_clear_fifo
00285b1c g     F .text	00000074 altera_avalon_jtag_uart_close
00288dfc g       *ABS*	00000000 __ram_rwdata_start
002889c8 g       *ABS*	00000000 __ram_rodata_start
0028cb38 g     O .bss	00000028 __malloc_current_mallinfo
00285640 g     F .text	00000058 altera_avalon_jtag_uart_read_fd
002883b8 g     F .text	000000b8 alt_get_fd
00283f6c g     F .text	00000070 _close_r
00280540 g     F .text	000000ac decode_scancode
0028854c g     F .text	00000074 memcmp
002856f0 g     F .text	00000048 altera_avalon_jtag_uart_close_fd
0028cdf0 g       *ABS*	00000000 __alt_stack_base
00285738 g     F .text	00000050 altera_avalon_jtag_uart_ioctl_fd
002833d0 g     F .text	0000013c __swsetup_r
0028caf4 g     O .bss	00000004 char_buf_dev
0028390c g     F .text	000000f0 __sfp
0028caf8 g     O .bss	00000004 byte
002890c8 g     O .rwdata	00000408 __malloc_av_
002837a0 g     F .text	00000004 __sinit_lock_release
00283e94 g     F .text	00000060 __sread
00288298 g     F .text	00000120 alt_find_file
00287ac8 g     F .text	000000b4 alt_dev_llist_insert
00284bac g     F .text	00000020 __malloc_lock
00285064 g     F .text	000000bc sbrk
0028350c g     F .text	000001fc _fflush_r
0028caec g       *ABS*	00000000 __bss_start
00283d10 g     F .text	00000098 memset
00280f44 g     F .text	0000013c main
0028026c g     F .text	00000078 get_single_byte_make_code_index
0028cb2c g     O .bss	00000004 alt_envp
0028cb18 g     O .bss	00000004 __malloc_max_total_mem
00286624 g     F .text	00000058 alt_up_pixel_buffer_dma_swap_buffers
0028616c g     F .text	00000040 alt_up_char_buffer_open_dev
00285698 g     F .text	00000058 altera_avalon_jtag_uart_write_fd
002833b4 g     F .text	0000001c __swbuf
00283da8 g     F .text	00000008 __sclose
002cb000 g       *ABS*	00000000 __alt_heap_limit
002840ec g     F .text	00000014 fclose
00280cec g     F .text	0000007c alt_up_ps2_read_data_byte
0028cc60 g     O .bss	00000190 _atexit0
002815dc g     F .text	00000740 _malloc_r
0028ac60 g     O .rwdata	00000004 alt_errno
00283ac4 g     F .text	000000b8 _fwalk
002809e4 g     F .text	00000058 alt_up_ps2_clear_interrupt_flag
00280f04 g     F .text	00000040 alt_up_ps2_open_dev
00282aa4 g     F .text	00000104 putc
00281f64 g     F .text	0000012c _malloc_trim_r
00280a3c g     F .text	00000054 alt_up_ps2_enable_read_interrupt
002889c8 g       *ABS*	00000000 __CTOR_END__
002885c0 g     F .text	000000bc strcmp
002889c8 g       *ABS*	00000000 __flash_rodata_start
002889c8 g       *ABS*	00000000 __DTOR_LIST__
002852a0 g     F .text	00000034 alt_irq_init
00285004 g     F .text	00000060 alt_release_fd
002808a0 g     F .text	00000034 read_data_valid
00288500 g     F .text	00000014 atexit
00280bd0 g     F .text	0000006c alt_up_ps2_write_data_byte_with_ack
0028cafc g     O .bss	00000004 kb
00283ef4 g     F .text	00000078 _write_r
0028ac44 g     O .rwdata	00000004 _impure_ptr
0028cb24 g     O .bss	00000004 alt_argc
00287c40 g     F .text	00000064 _do_dtors
0028cb00 g     O .bss	00000004 ascii
0028cb04 g     O .bss	00000004 buf
00280020 g       .exceptions	00000000 alt_irq_entry
00283858 g     F .text	00000018 __fp_unlock_all
0028ac4c g     O .rwdata	00000008 alt_fs_list
00280020 g       *ABS*	00000000 __ram_exceptions_start
0028ac74 g       *ABS*	00000000 _edata
0028cdf0 g       *ABS*	00000000 _end
002801b8 g       *ABS*	00000000 __ram_exceptions_end
00285b90 g     F .text	000000f4 altera_avalon_jtag_uart_ioctl
00283e18 g     F .text	0000007c __swrite
0028ac3c g     O .rwdata	00000004 __malloc_trim_threshold
00288278 g     F .text	00000020 altera_nios2_qsys_irq_init
00288514 g     F .text	00000038 exit
002839fc g     F .text	000000c8 _fwalk_reent
00280900 g     F .text	000000e4 alt_up_ps2_init
002cb000 g       *ABS*	00000000 __alt_data_end
00280020 g     F .exceptions	00000000 alt_exception
00283798 g     F .text	00000004 __sfp_lock_release
002889a4 g     F .text	00000020 _exit
00287958 g     F .text	00000154 alt_alarm_start
002802e4 g     F .text	0000025c get_next_state
0028cb08 g     O .bss	00000004 pixel_buf_dev
00283b7c g     F .text	00000194 __smakebuf_r
00280b60 g     F .text	00000070 alt_up_ps2_wait_for_ack
00281ef0 g     F .text	00000074 strlen
00287eec g     F .text	00000188 open
00284e44 g     F .text	00000040 alt_putchar
00287ca4 g     F .text	00000030 alt_icache_flush_all
0028ac64 g     O .rwdata	00000004 alt_priority_mask
00280dc0 g     F .text	0000009c alt_up_ps2_read_fd
00288ffa g     O .rwdata	00000066 single_byte_make_code
0028ac6c g     O .rwdata	00000008 alt_alarm_list
00287bdc g     F .text	00000064 _do_ctors
002842d4 g     F .text	000000fc close
0028cb0c g     O .bss	00000004 coordinateX
00284904 g     F .text	00000080 alt_load
002815b4 g     F .text	00000014 free
0028379c g     F .text	00000004 __sinit_lock_acquire



Disassembly of section .entry:

00280000 <__reset>:
  280000:	00840014 	movui	r2,4096
  280004:	1001483a 	initi	r2
  280008:	10bff804 	addi	r2,r2,-32
  28000c:	00bffd16 	blt	zero,r2,280004 <__reset+0x4>
  280010:	00400a34 	movhi	at,40
  280014:	08406e14 	ori	at,at,440
  280018:	0800683a 	jmp	at
  28001c:	00000000 	call	0 <__reset-0x280000>

Disassembly of section .exceptions:

00280020 <alt_exception>:
  280020:	deffed04 	addi	sp,sp,-76
  280024:	dfc00015 	stw	ra,0(sp)
  280028:	d8400215 	stw	at,8(sp)
  28002c:	d8800315 	stw	r2,12(sp)
  280030:	d8c00415 	stw	r3,16(sp)
  280034:	d9000515 	stw	r4,20(sp)
  280038:	d9400615 	stw	r5,24(sp)
  28003c:	d9800715 	stw	r6,28(sp)
  280040:	d9c00815 	stw	r7,32(sp)
  280044:	000b307a 	rdctl	r5,estatus
  280048:	da000915 	stw	r8,36(sp)
  28004c:	da400a15 	stw	r9,40(sp)
  280050:	da800b15 	stw	r10,44(sp)
  280054:	dac00c15 	stw	r11,48(sp)
  280058:	db000d15 	stw	r12,52(sp)
  28005c:	db400e15 	stw	r13,56(sp)
  280060:	db800f15 	stw	r14,60(sp)
  280064:	dbc01015 	stw	r15,64(sp)
  280068:	d9401115 	stw	r5,68(sp)
  28006c:	ebffff04 	addi	r15,ea,-4
  280070:	dbc01215 	stw	r15,72(sp)
  280074:	0009313a 	rdctl	r4,ipending
  280078:	2880004c 	andi	r2,r5,1
  28007c:	10000326 	beq	r2,zero,28008c <alt_exception+0x6c>
  280080:	20000226 	beq	r4,zero,28008c <alt_exception+0x6c>
  280084:	02800ec0 	call	2800ec <alt_irq_handler>
  280088:	00000306 	br	280098 <alt_exception+0x78>
  28008c:	df401215 	stw	ea,72(sp)
  280090:	e8bfff17 	ldw	r2,-4(ea)
  280094:	003da03a 	break	0
  280098:	d9401117 	ldw	r5,68(sp)
  28009c:	df401217 	ldw	ea,72(sp)
  2800a0:	dfc00017 	ldw	ra,0(sp)
  2800a4:	2801707a 	wrctl	estatus,r5
  2800a8:	d8400217 	ldw	at,8(sp)
  2800ac:	d8800317 	ldw	r2,12(sp)
  2800b0:	d8c00417 	ldw	r3,16(sp)
  2800b4:	d9000517 	ldw	r4,20(sp)
  2800b8:	d9400617 	ldw	r5,24(sp)
  2800bc:	d9800717 	ldw	r6,28(sp)
  2800c0:	d9c00817 	ldw	r7,32(sp)
  2800c4:	da000917 	ldw	r8,36(sp)
  2800c8:	da400a17 	ldw	r9,40(sp)
  2800cc:	da800b17 	ldw	r10,44(sp)
  2800d0:	dac00c17 	ldw	r11,48(sp)
  2800d4:	db000d17 	ldw	r12,52(sp)
  2800d8:	db400e17 	ldw	r13,56(sp)
  2800dc:	db800f17 	ldw	r14,60(sp)
  2800e0:	dbc01017 	ldw	r15,64(sp)
  2800e4:	dec01304 	addi	sp,sp,76
  2800e8:	ef80083a 	eret

002800ec <alt_irq_handler>:
  2800ec:	defff904 	addi	sp,sp,-28
  2800f0:	dfc00615 	stw	ra,24(sp)
  2800f4:	df000515 	stw	fp,20(sp)
  2800f8:	df000504 	addi	fp,sp,20
  2800fc:	0005313a 	rdctl	r2,ipending
  280100:	e0bffc15 	stw	r2,-16(fp)
  280104:	e0bffc17 	ldw	r2,-16(fp)
  280108:	e0bfff15 	stw	r2,-4(fp)
  28010c:	e03ffd15 	stw	zero,-12(fp)
  280110:	00800044 	movi	r2,1
  280114:	e0bffe15 	stw	r2,-8(fp)
  280118:	e0ffff17 	ldw	r3,-4(fp)
  28011c:	e0bffe17 	ldw	r2,-8(fp)
  280120:	1884703a 	and	r2,r3,r2
  280124:	1005003a 	cmpeq	r2,r2,zero
  280128:	1000171e 	bne	r2,zero,280188 <alt_irq_handler+0x9c>
  28012c:	e0bffd17 	ldw	r2,-12(fp)
  280130:	00c00a74 	movhi	r3,41
  280134:	18f2d804 	addi	r3,r3,-13472
  280138:	100490fa 	slli	r2,r2,3
  28013c:	10c5883a 	add	r2,r2,r3
  280140:	11800017 	ldw	r6,0(r2)
  280144:	e0bffd17 	ldw	r2,-12(fp)
  280148:	00c00a74 	movhi	r3,41
  28014c:	18f2d804 	addi	r3,r3,-13472
  280150:	100490fa 	slli	r2,r2,3
  280154:	10c5883a 	add	r2,r2,r3
  280158:	10800104 	addi	r2,r2,4
  28015c:	11000017 	ldw	r4,0(r2)
  280160:	e17ffd17 	ldw	r5,-12(fp)
  280164:	303ee83a 	callr	r6
  280168:	0005313a 	rdctl	r2,ipending
  28016c:	e0bffb15 	stw	r2,-20(fp)
  280170:	e0bffb17 	ldw	r2,-20(fp)
  280174:	e0bfff15 	stw	r2,-4(fp)
  280178:	e0bfff17 	ldw	r2,-4(fp)
  28017c:	1004c03a 	cmpne	r2,r2,zero
  280180:	103fe21e 	bne	r2,zero,28010c <alt_irq_handler+0x20>
  280184:	00000706 	br	2801a4 <alt_irq_handler+0xb8>
  280188:	e0bffe17 	ldw	r2,-8(fp)
  28018c:	1085883a 	add	r2,r2,r2
  280190:	e0bffe15 	stw	r2,-8(fp)
  280194:	e0bffd17 	ldw	r2,-12(fp)
  280198:	10800044 	addi	r2,r2,1
  28019c:	e0bffd15 	stw	r2,-12(fp)
  2801a0:	003fdd06 	br	280118 <alt_irq_handler+0x2c>
  2801a4:	e037883a 	mov	sp,fp
  2801a8:	dfc00117 	ldw	ra,4(sp)
  2801ac:	df000017 	ldw	fp,0(sp)
  2801b0:	dec00204 	addi	sp,sp,8
  2801b4:	f800283a 	ret

Disassembly of section .text:

002801b8 <_start>:
  2801b8:	06c00b34 	movhi	sp,44
  2801bc:	deec0014 	ori	sp,sp,45056
  2801c0:	06800a74 	movhi	gp,41
  2801c4:	d68b0e14 	ori	gp,gp,11320
  2801c8:	00800a34 	movhi	r2,40
  2801cc:	10b2bb14 	ori	r2,r2,51948
  2801d0:	00c00a34 	movhi	r3,40
  2801d4:	18f37c14 	ori	r3,r3,52720
  2801d8:	10c00326 	beq	r2,r3,2801e8 <_start+0x30>
  2801dc:	10000015 	stw	zero,0(r2)
  2801e0:	10800104 	addi	r2,r2,4
  2801e4:	10fffd36 	bltu	r2,r3,2801dc <_start+0x24>
  2801e8:	02849040 	call	284904 <alt_load>
  2801ec:	0284b400 	call	284b40 <alt_main>

002801f0 <alt_after_alt_main>:
  2801f0:	003fff06 	br	2801f0 <alt_after_alt_main>

002801f4 <get_multi_byte_make_code_index>:
    STATE_DONE
} DECODE_STATE;

//helper function for get_next_state
unsigned get_multi_byte_make_code_index(alt_u8 code)
{
  2801f4:	defffc04 	addi	sp,sp,-16
  2801f8:	df000315 	stw	fp,12(sp)
  2801fc:	df000304 	addi	fp,sp,12
  280200:	e13ffe05 	stb	r4,-8(fp)
    unsigned i;
    for (i = 0; i < SCAN_CODE_NUM; i++ )
  280204:	e03ffd15 	stw	zero,-12(fp)
  280208:	00000e06 	br	280244 <get_multi_byte_make_code_index+0x50>
    {
        if ( multi_byte_make_code[i] == code )
  28020c:	e0fffd17 	ldw	r3,-12(fp)
  280210:	00800a74 	movhi	r2,41
  280214:	10a41804 	addi	r2,r2,-28576
  280218:	10c5883a 	add	r2,r2,r3
  28021c:	10800003 	ldbu	r2,0(r2)
  280220:	10c03fcc 	andi	r3,r2,255
  280224:	e0bffe03 	ldbu	r2,-8(fp)
  280228:	1880031e 	bne	r3,r2,280238 <get_multi_byte_make_code_index+0x44>
            return i;
  28022c:	e0bffd17 	ldw	r2,-12(fp)
  280230:	e0bfff15 	stw	r2,-4(fp)
  280234:	00000806 	br	280258 <get_multi_byte_make_code_index+0x64>

//helper function for get_next_state
unsigned get_multi_byte_make_code_index(alt_u8 code)
{
    unsigned i;
    for (i = 0; i < SCAN_CODE_NUM; i++ )
  280238:	e0bffd17 	ldw	r2,-12(fp)
  28023c:	10800044 	addi	r2,r2,1
  280240:	e0bffd15 	stw	r2,-12(fp)
  280244:	e0bffd17 	ldw	r2,-12(fp)
  280248:	108019b0 	cmpltui	r2,r2,102
  28024c:	103fef1e 	bne	r2,zero,28020c <get_multi_byte_make_code_index+0x18>
    {
        if ( multi_byte_make_code[i] == code )
            return i;
    }
    return SCAN_CODE_NUM;
  280250:	00801984 	movi	r2,102
  280254:	e0bfff15 	stw	r2,-4(fp)
  280258:	e0bfff17 	ldw	r2,-4(fp)
}
  28025c:	e037883a 	mov	sp,fp
  280260:	df000017 	ldw	fp,0(sp)
  280264:	dec00104 	addi	sp,sp,4
  280268:	f800283a 	ret

0028026c <get_single_byte_make_code_index>:

//helper function for get_next_state
unsigned get_single_byte_make_code_index(alt_u8 code)
{
  28026c:	defffc04 	addi	sp,sp,-16
  280270:	df000315 	stw	fp,12(sp)
  280274:	df000304 	addi	fp,sp,12
  280278:	e13ffe05 	stb	r4,-8(fp)
    unsigned i;
    for (i = 0; i < SCAN_CODE_NUM; i++ )
  28027c:	e03ffd15 	stw	zero,-12(fp)
  280280:	00000e06 	br	2802bc <get_single_byte_make_code_index+0x50>
    {
        if ( single_byte_make_code[i] == code )
  280284:	e0fffd17 	ldw	r3,-12(fp)
  280288:	00800a74 	movhi	r2,41
  28028c:	10a3fe84 	addi	r2,r2,-28678
  280290:	10c5883a 	add	r2,r2,r3
  280294:	10800003 	ldbu	r2,0(r2)
  280298:	10c03fcc 	andi	r3,r2,255
  28029c:	e0bffe03 	ldbu	r2,-8(fp)
  2802a0:	1880031e 	bne	r3,r2,2802b0 <get_single_byte_make_code_index+0x44>
            return i;
  2802a4:	e0bffd17 	ldw	r2,-12(fp)
  2802a8:	e0bfff15 	stw	r2,-4(fp)
  2802ac:	00000806 	br	2802d0 <get_single_byte_make_code_index+0x64>

//helper function for get_next_state
unsigned get_single_byte_make_code_index(alt_u8 code)
{
    unsigned i;
    for (i = 0; i < SCAN_CODE_NUM; i++ )
  2802b0:	e0bffd17 	ldw	r2,-12(fp)
  2802b4:	10800044 	addi	r2,r2,1
  2802b8:	e0bffd15 	stw	r2,-12(fp)
  2802bc:	e0bffd17 	ldw	r2,-12(fp)
  2802c0:	108019b0 	cmpltui	r2,r2,102
  2802c4:	103fef1e 	bne	r2,zero,280284 <get_single_byte_make_code_index+0x18>
    {
        if ( single_byte_make_code[i] == code )
            return i;
    }
    return SCAN_CODE_NUM;
  2802c8:	00801984 	movi	r2,102
  2802cc:	e0bfff15 	stw	r2,-4(fp)
  2802d0:	e0bfff17 	ldw	r2,-4(fp)
}
  2802d4:	e037883a 	mov	sp,fp
  2802d8:	df000017 	ldw	fp,0(sp)
  2802dc:	dec00104 	addi	sp,sp,4
  2802e0:	f800283a 	ret

002802e4 <get_next_state>:
  |                               |
  +-------------------------------|

 */
DECODE_STATE get_next_state(DECODE_STATE state, alt_u8 byte, KB_CODE_TYPE *decode_mode, alt_u8 *buf, char *ascii)
{
  2802e4:	defff704 	addi	sp,sp,-36
  2802e8:	dfc00815 	stw	ra,32(sp)
  2802ec:	df000715 	stw	fp,28(sp)
  2802f0:	df000704 	addi	fp,sp,28
  2802f4:	e13ffb15 	stw	r4,-20(fp)
  2802f8:	e1bffd15 	stw	r6,-12(fp)
  2802fc:	e1fffe15 	stw	r7,-8(fp)
  280300:	e17ffc05 	stb	r5,-16(fp)
    DECODE_STATE next_state = STATE_INIT;
  280304:	e03ffa15 	stw	zero,-24(fp)
    unsigned idx = SCAN_CODE_NUM;
  280308:	00801984 	movi	r2,102
  28030c:	e0bff915 	stw	r2,-28(fp)
    *ascii = 0;
  280310:	e0800217 	ldw	r2,8(fp)
  280314:	10000005 	stb	zero,0(r2)
    switch (state)
  280318:	e0bffb17 	ldw	r2,-20(fp)
  28031c:	e0bfff15 	stw	r2,-4(fp)
  280320:	e0ffff17 	ldw	r3,-4(fp)
  280324:	18800060 	cmpeqi	r2,r3,1
  280328:	10003c1e 	bne	r2,zero,28041c <get_next_state+0x138>
  28032c:	e0ffff17 	ldw	r3,-4(fp)
  280330:	18800070 	cmpltui	r2,r3,1
  280334:	1000071e 	bne	r2,zero,280354 <get_next_state+0x70>
  280338:	e0ffff17 	ldw	r3,-4(fp)
  28033c:	188000a0 	cmpeqi	r2,r3,2
  280340:	10004b1e 	bne	r2,zero,280470 <get_next_state+0x18c>
  280344:	e0ffff17 	ldw	r3,-4(fp)
  280348:	188000e0 	cmpeqi	r2,r3,3
  28034c:	10005d1e 	bne	r2,zero,2804c4 <get_next_state+0x1e0>
  280350:	00007106 	br	280518 <get_next_state+0x234>
    {
        case STATE_INIT:
            if ( byte == 0xE0 )
  280354:	e0bffc03 	ldbu	r2,-16(fp)
  280358:	10803818 	cmpnei	r2,r2,224
  28035c:	1000031e 	bne	r2,zero,28036c <get_next_state+0x88>
            {
                // this could be a long break code or a long make code
                next_state = STATE_LONG_CODE;
  280360:	00800044 	movi	r2,1
  280364:	e0bffa15 	stw	r2,-24(fp)
  280368:	00006f06 	br	280528 <get_next_state+0x244>
            }
            else if (byte == 0xF0)
  28036c:	e0bffc03 	ldbu	r2,-16(fp)
  280370:	10803c18 	cmpnei	r2,r2,240
  280374:	1000031e 	bne	r2,zero,280384 <get_next_state+0xa0>
            {
                // it is a break code
                next_state = STATE_BREAK_CODE;
  280378:	00800084 	movi	r2,2
  28037c:	e0bffa15 	stw	r2,-24(fp)
  280380:	00006906 	br	280528 <get_next_state+0x244>
            }
            else
            {
                // it is a normal make code
                idx = get_single_byte_make_code_index(byte);
  280384:	e13ffc03 	ldbu	r4,-16(fp)
  280388:	028026c0 	call	28026c <get_single_byte_make_code_index>
  28038c:	e0bff915 	stw	r2,-28(fp)
                if ( (idx < 40 || idx == 68 || idx > 79) && ( idx != SCAN_CODE_NUM ) )
  280390:	e0bff917 	ldw	r2,-28(fp)
  280394:	10800a30 	cmpltui	r2,r2,40
  280398:	1000061e 	bne	r2,zero,2803b4 <get_next_state+0xd0>
  28039c:	e0bff917 	ldw	r2,-28(fp)
  2803a0:	10801120 	cmpeqi	r2,r2,68
  2803a4:	1000031e 	bne	r2,zero,2803b4 <get_next_state+0xd0>
  2803a8:	e0bff917 	ldw	r2,-28(fp)
  2803ac:	10801430 	cmpltui	r2,r2,80
  2803b0:	1000111e 	bne	r2,zero,2803f8 <get_next_state+0x114>
  2803b4:	e0bff917 	ldw	r2,-28(fp)
  2803b8:	108019a0 	cmpeqi	r2,r2,102
  2803bc:	10000e1e 	bne	r2,zero,2803f8 <get_next_state+0x114>
                {
                    *decode_mode = KB_ASCII_MAKE_CODE;
  2803c0:	e0fffd17 	ldw	r3,-12(fp)
  2803c4:	00800044 	movi	r2,1
  2803c8:	18800015 	stw	r2,0(r3)
                    *ascii = ascii_codes[idx];
  2803cc:	e0fff917 	ldw	r3,-28(fp)
  2803d0:	00800a74 	movhi	r2,41
  2803d4:	10a3e504 	addi	r2,r2,-28780
  2803d8:	10c5883a 	add	r2,r2,r3
  2803dc:	10c00003 	ldbu	r3,0(r2)
  2803e0:	e0800217 	ldw	r2,8(fp)
  2803e4:	10c00005 	stb	r3,0(r2)
                    *buf = byte;
  2803e8:	e0fffe17 	ldw	r3,-8(fp)
  2803ec:	e0bffc03 	ldbu	r2,-16(fp)
  2803f0:	18800005 	stb	r2,0(r3)
            }
            else
            {
                // it is a normal make code
                idx = get_single_byte_make_code_index(byte);
                if ( (idx < 40 || idx == 68 || idx > 79) && ( idx != SCAN_CODE_NUM ) )
  2803f4:	00000606 	br	280410 <get_next_state+0x12c>
                    *ascii = ascii_codes[idx];
                    *buf = byte;
                }
                else
                {
                    *decode_mode = KB_BINARY_MAKE_CODE;
  2803f8:	e0fffd17 	ldw	r3,-12(fp)
  2803fc:	00800084 	movi	r2,2
  280400:	18800015 	stw	r2,0(r3)
                    *buf = byte;
  280404:	e0fffe17 	ldw	r3,-8(fp)
  280408:	e0bffc03 	ldbu	r2,-16(fp)
  28040c:	18800005 	stb	r2,0(r3)
                }
                next_state = STATE_DONE;
  280410:	00800104 	movi	r2,4
  280414:	e0bffa15 	stw	r2,-24(fp)
            }
            break;
  280418:	00004306 	br	280528 <get_next_state+0x244>
        case STATE_LONG_CODE:
            if ( byte != 0xF0 && byte!= 0xE0)
  28041c:	e0bffc03 	ldbu	r2,-16(fp)
  280420:	10803c20 	cmpeqi	r2,r2,240
  280424:	10000c1e 	bne	r2,zero,280458 <get_next_state+0x174>
  280428:	e0bffc03 	ldbu	r2,-16(fp)
  28042c:	10803820 	cmpeqi	r2,r2,224
  280430:	1000091e 	bne	r2,zero,280458 <get_next_state+0x174>
            {
                *decode_mode = KB_LONG_BINARY_MAKE_CODE;
  280434:	e0fffd17 	ldw	r3,-12(fp)
  280438:	008000c4 	movi	r2,3
  28043c:	18800015 	stw	r2,0(r3)
                *buf = byte;
  280440:	e0fffe17 	ldw	r3,-8(fp)
  280444:	e0bffc03 	ldbu	r2,-16(fp)
  280448:	18800005 	stb	r2,0(r3)
                next_state = STATE_DONE;
  28044c:	00800104 	movi	r2,4
  280450:	e0bffa15 	stw	r2,-24(fp)
                }
                next_state = STATE_DONE;
            }
            break;
        case STATE_LONG_CODE:
            if ( byte != 0xF0 && byte!= 0xE0)
  280454:	00003406 	br	280528 <get_next_state+0x244>
                *buf = byte;
                next_state = STATE_DONE;
            }
            else
            {
                *decode_mode = KB_BREAK_CODE;
  280458:	e0bffd17 	ldw	r2,-12(fp)
  28045c:	00c00104 	movi	r3,4
  280460:	10c00015 	stw	r3,0(r2)
                next_state = STATE_LONG_BREAK_CODE;
  280464:	008000c4 	movi	r2,3
  280468:	e0bffa15 	stw	r2,-24(fp)
            }
            break;
  28046c:	00002e06 	br	280528 <get_next_state+0x244>
        case STATE_BREAK_CODE:
            if ( byte != 0xF0 && byte != 0xE0)
  280470:	e0bffc03 	ldbu	r2,-16(fp)
  280474:	10803c20 	cmpeqi	r2,r2,240
  280478:	10000c1e 	bne	r2,zero,2804ac <get_next_state+0x1c8>
  28047c:	e0bffc03 	ldbu	r2,-16(fp)
  280480:	10803820 	cmpeqi	r2,r2,224
  280484:	1000091e 	bne	r2,zero,2804ac <get_next_state+0x1c8>
            {
                *decode_mode = KB_BREAK_CODE;
  280488:	e0fffd17 	ldw	r3,-12(fp)
  28048c:	00800104 	movi	r2,4
  280490:	18800015 	stw	r2,0(r3)
                *buf = byte;
  280494:	e0fffe17 	ldw	r3,-8(fp)
  280498:	e0bffc03 	ldbu	r2,-16(fp)
  28049c:	18800005 	stb	r2,0(r3)
                next_state = STATE_DONE;
  2804a0:	00800104 	movi	r2,4
  2804a4:	e0bffa15 	stw	r2,-24(fp)
                *decode_mode = KB_BREAK_CODE;
                next_state = STATE_LONG_BREAK_CODE;
            }
            break;
        case STATE_BREAK_CODE:
            if ( byte != 0xF0 && byte != 0xE0)
  2804a8:	00001f06 	br	280528 <get_next_state+0x244>
                *buf = byte;
                next_state = STATE_DONE;
            }
            else
            {
                next_state = STATE_BREAK_CODE;
  2804ac:	00800084 	movi	r2,2
  2804b0:	e0bffa15 	stw	r2,-24(fp)
                *decode_mode = KB_BREAK_CODE;
  2804b4:	e0fffd17 	ldw	r3,-12(fp)
  2804b8:	00800104 	movi	r2,4
  2804bc:	18800015 	stw	r2,0(r3)
            }
            break;
  2804c0:	00001906 	br	280528 <get_next_state+0x244>
        case STATE_LONG_BREAK_CODE:
            if ( byte != 0xF0 && byte != 0xE0)
  2804c4:	e0bffc03 	ldbu	r2,-16(fp)
  2804c8:	10803c20 	cmpeqi	r2,r2,240
  2804cc:	10000c1e 	bne	r2,zero,280500 <get_next_state+0x21c>
  2804d0:	e0bffc03 	ldbu	r2,-16(fp)
  2804d4:	10803820 	cmpeqi	r2,r2,224
  2804d8:	1000091e 	bne	r2,zero,280500 <get_next_state+0x21c>
            {
                *decode_mode = KB_LONG_BREAK_CODE;
  2804dc:	e0fffd17 	ldw	r3,-12(fp)
  2804e0:	00800144 	movi	r2,5
  2804e4:	18800015 	stw	r2,0(r3)
                *buf = byte;
  2804e8:	e0fffe17 	ldw	r3,-8(fp)
  2804ec:	e0bffc03 	ldbu	r2,-16(fp)
  2804f0:	18800005 	stb	r2,0(r3)
                next_state = STATE_DONE;
  2804f4:	00800104 	movi	r2,4
  2804f8:	e0bffa15 	stw	r2,-24(fp)
                next_state = STATE_BREAK_CODE;
                *decode_mode = KB_BREAK_CODE;
            }
            break;
        case STATE_LONG_BREAK_CODE:
            if ( byte != 0xF0 && byte != 0xE0)
  2804fc:	00000a06 	br	280528 <get_next_state+0x244>
                *buf = byte;
                next_state = STATE_DONE;
            }
            else
            {
                next_state = STATE_LONG_BREAK_CODE;
  280500:	008000c4 	movi	r2,3
  280504:	e0bffa15 	stw	r2,-24(fp)
                *decode_mode = KB_LONG_BREAK_CODE;
  280508:	e0fffd17 	ldw	r3,-12(fp)
  28050c:	00800144 	movi	r2,5
  280510:	18800015 	stw	r2,0(r3)
            }
            break;
  280514:	00000406 	br	280528 <get_next_state+0x244>
        default:
            *decode_mode = KB_INVALID_CODE;
  280518:	e0fffd17 	ldw	r3,-12(fp)
  28051c:	00800184 	movi	r2,6
  280520:	18800015 	stw	r2,0(r3)
            next_state = STATE_INIT;
  280524:	e03ffa15 	stw	zero,-24(fp)
    }
    return next_state;
  280528:	e0bffa17 	ldw	r2,-24(fp)
}
  28052c:	e037883a 	mov	sp,fp
  280530:	dfc00117 	ldw	ra,4(sp)
  280534:	df000017 	ldw	fp,0(sp)
  280538:	dec00204 	addi	sp,sp,8
  28053c:	f800283a 	ret

00280540 <decode_scancode>:

int decode_scancode(alt_up_ps2_dev *ps2, KB_CODE_TYPE *decode_mode, alt_u8 *buf, char *ascii)
{
  280540:	defff504 	addi	sp,sp,-44
  280544:	dfc00a15 	stw	ra,40(sp)
  280548:	df000915 	stw	fp,36(sp)
  28054c:	df000904 	addi	fp,sp,36
  280550:	e13ffb15 	stw	r4,-20(fp)
  280554:	e17ffc15 	stw	r5,-16(fp)
  280558:	e1bffd15 	stw	r6,-12(fp)
  28055c:	e1fffe15 	stw	r7,-8(fp)
    alt_u8 byte = 0;
  280560:	e03ffa05 	stb	zero,-24(fp)
    int status_read =0;
  280564:	e03ff915 	stw	zero,-28(fp)
    *decode_mode = KB_INVALID_CODE;
  280568:	e0fffc17 	ldw	r3,-16(fp)
  28056c:	00800184 	movi	r2,6
  280570:	18800015 	stw	r2,0(r3)
    DECODE_STATE state = STATE_INIT;
  280574:	e03ff815 	stw	zero,-32(fp)
    do
    {
        status_read = alt_up_ps2_read_data_byte(ps2, &byte);
  280578:	e17ffa04 	addi	r5,fp,-24
  28057c:	e13ffb17 	ldw	r4,-20(fp)
  280580:	0280cec0 	call	280cec <alt_up_ps2_read_data_byte>
  280584:	e0bff915 	stw	r2,-28(fp)
        //FIXME: When the user press the keyboard extremely fast, data may get
        //occasionally get lost

        if (status_read != 0)
  280588:	e0bff917 	ldw	r2,-28(fp)
  28058c:	1005003a 	cmpeq	r2,r2,zero
  280590:	1000031e 	bne	r2,zero,2805a0 <decode_scancode+0x60>
            return status_read;
  280594:	e0bff917 	ldw	r2,-28(fp)
  280598:	e0bfff15 	stw	r2,-4(fp)
  28059c:	00000d06 	br	2805d4 <decode_scancode+0x94>

        state = get_next_state(state, byte, decode_mode, buf, ascii);
  2805a0:	e0bffa03 	ldbu	r2,-24(fp)
  2805a4:	11403fcc 	andi	r5,r2,255
  2805a8:	e0bffe17 	ldw	r2,-8(fp)
  2805ac:	d8800015 	stw	r2,0(sp)
  2805b0:	e13ff817 	ldw	r4,-32(fp)
  2805b4:	e1bffc17 	ldw	r6,-16(fp)
  2805b8:	e1fffd17 	ldw	r7,-12(fp)
  2805bc:	02802e40 	call	2802e4 <get_next_state>
  2805c0:	e0bff815 	stw	r2,-32(fp)
    } while ( state != STATE_DONE );
  2805c4:	e0bff817 	ldw	r2,-32(fp)
  2805c8:	10800118 	cmpnei	r2,r2,4
  2805cc:	103fea1e 	bne	r2,zero,280578 <decode_scancode+0x38>

    return 0;
  2805d0:	e03fff15 	stw	zero,-4(fp)
  2805d4:	e0bfff17 	ldw	r2,-4(fp)
}
  2805d8:	e037883a 	mov	sp,fp
  2805dc:	dfc00117 	ldw	ra,4(sp)
  2805e0:	df000017 	ldw	fp,0(sp)
  2805e4:	dec00204 	addi	sp,sp,8
  2805e8:	f800283a 	ret

002805ec <set_keyboard_rate>:

alt_u32 set_keyboard_rate(alt_up_ps2_dev *ps2, alt_u8 rate)
{
  2805ec:	defffb04 	addi	sp,sp,-20
  2805f0:	dfc00415 	stw	ra,16(sp)
  2805f4:	df000315 	stw	fp,12(sp)
  2805f8:	df000304 	addi	fp,sp,12
  2805fc:	e13ffe15 	stw	r4,-8(fp)
  280600:	e17fff05 	stb	r5,-4(fp)
    // send the set keyboard rate command
    int status_send = alt_up_ps2_write_data_byte_with_ack(ps2, 0xF3);
  280604:	e13ffe17 	ldw	r4,-8(fp)
  280608:	01403cc4 	movi	r5,243
  28060c:	0280bd00 	call	280bd0 <alt_up_ps2_write_data_byte_with_ack>
  280610:	e0bffd15 	stw	r2,-12(fp)
    if ( status_send == 0)
  280614:	e0bffd17 	ldw	r2,-12(fp)
  280618:	1004c03a 	cmpne	r2,r2,zero
  28061c:	1000051e 	bne	r2,zero,280634 <set_keyboard_rate+0x48>
    {
        // we received ACK, so send out the desired rate now
        status_send = alt_up_ps2_write_data_byte_with_ack(ps2, rate & 0x1F);
  280620:	e0bfff03 	ldbu	r2,-4(fp)
  280624:	114007cc 	andi	r5,r2,31
  280628:	e13ffe17 	ldw	r4,-8(fp)
  28062c:	0280bd00 	call	280bd0 <alt_up_ps2_write_data_byte_with_ack>
  280630:	e0bffd15 	stw	r2,-12(fp)
    }
    return status_send;
  280634:	e0bffd17 	ldw	r2,-12(fp)
}
  280638:	e037883a 	mov	sp,fp
  28063c:	dfc00117 	ldw	ra,4(sp)
  280640:	df000017 	ldw	fp,0(sp)
  280644:	dec00204 	addi	sp,sp,8
  280648:	f800283a 	ret

0028064c <translate_make_code>:

void translate_make_code(KB_CODE_TYPE decode_mode, alt_u8 makecode, char *str)
{
  28064c:	defff904 	addi	sp,sp,-28
  280650:	dfc00615 	stw	ra,24(sp)
  280654:	df000515 	stw	fp,20(sp)
  280658:	df000504 	addi	fp,sp,20
  28065c:	e13ffc15 	stw	r4,-16(fp)
  280660:	e1bffe15 	stw	r6,-8(fp)
  280664:	e17ffd05 	stb	r5,-12(fp)
    unsigned idx;
    switch (decode_mode)
  280668:	e0bffc17 	ldw	r2,-16(fp)
  28066c:	e0bfff15 	stw	r2,-4(fp)
  280670:	e0ffff17 	ldw	r3,-4(fp)
  280674:	188000a0 	cmpeqi	r2,r3,2
  280678:	1000141e 	bne	r2,zero,2806cc <translate_make_code+0x80>
  28067c:	e0ffff17 	ldw	r3,-4(fp)
  280680:	188000e0 	cmpeqi	r2,r3,3
  280684:	10001e1e 	bne	r2,zero,280700 <translate_make_code+0xb4>
  280688:	e0ffff17 	ldw	r3,-4(fp)
  28068c:	18800060 	cmpeqi	r2,r3,1
  280690:	1000011e 	bne	r2,zero,280698 <translate_make_code+0x4c>
  280694:	00002706 	br	280734 <translate_make_code+0xe8>
    {
        case KB_ASCII_MAKE_CODE:
            idx = get_single_byte_make_code_index(makecode);
  280698:	e13ffd03 	ldbu	r4,-12(fp)
  28069c:	028026c0 	call	28026c <get_single_byte_make_code_index>
  2806a0:	e0bffb15 	stw	r2,-20(fp)
            strcpy(str, key_table[idx]);
  2806a4:	e0bffb17 	ldw	r2,-20(fp)
  2806a8:	00c00a74 	movhi	r3,41
  2806ac:	18e37f04 	addi	r3,r3,-29188
  2806b0:	1085883a 	add	r2,r2,r2
  2806b4:	1085883a 	add	r2,r2,r2
  2806b8:	10c5883a 	add	r2,r2,r3
  2806bc:	11400017 	ldw	r5,0(r2)
  2806c0:	e13ffe17 	ldw	r4,-8(fp)
  2806c4:	0281e640 	call	281e64 <strcpy>
            break;
  2806c8:	00001d06 	br	280740 <translate_make_code+0xf4>
        case KB_BINARY_MAKE_CODE:
            idx = get_single_byte_make_code_index(makecode);
  2806cc:	e13ffd03 	ldbu	r4,-12(fp)
  2806d0:	028026c0 	call	28026c <get_single_byte_make_code_index>
  2806d4:	e0bffb15 	stw	r2,-20(fp)
            strcpy(str, key_table[idx]);
  2806d8:	e0bffb17 	ldw	r2,-20(fp)
  2806dc:	00c00a74 	movhi	r3,41
  2806e0:	18e37f04 	addi	r3,r3,-29188
  2806e4:	1085883a 	add	r2,r2,r2
  2806e8:	1085883a 	add	r2,r2,r2
  2806ec:	10c5883a 	add	r2,r2,r3
  2806f0:	11400017 	ldw	r5,0(r2)
  2806f4:	e13ffe17 	ldw	r4,-8(fp)
  2806f8:	0281e640 	call	281e64 <strcpy>
            break;
  2806fc:	00001006 	br	280740 <translate_make_code+0xf4>
        case KB_LONG_BINARY_MAKE_CODE:
            idx = get_multi_byte_make_code_index(makecode);
  280700:	e13ffd03 	ldbu	r4,-12(fp)
  280704:	02801f40 	call	2801f4 <get_multi_byte_make_code_index>
  280708:	e0bffb15 	stw	r2,-20(fp)
            strcpy(str, key_table[idx]);
  28070c:	e0bffb17 	ldw	r2,-20(fp)
  280710:	00c00a74 	movhi	r3,41
  280714:	18e37f04 	addi	r3,r3,-29188
  280718:	1085883a 	add	r2,r2,r2
  28071c:	1085883a 	add	r2,r2,r2
  280720:	10c5883a 	add	r2,r2,r3
  280724:	11400017 	ldw	r5,0(r2)
  280728:	e13ffe17 	ldw	r4,-8(fp)
  28072c:	0281e640 	call	281e64 <strcpy>
            break;
  280730:	00000306 	br	280740 <translate_make_code+0xf4>
        default:
            str = "";
  280734:	00800a74 	movhi	r2,41
  280738:	10a30004 	addi	r2,r2,-29696
  28073c:	e0bffe15 	stw	r2,-8(fp)
            break;
    }
}
  280740:	e037883a 	mov	sp,fp
  280744:	dfc00117 	ldw	ra,4(sp)
  280748:	df000017 	ldw	fp,0(sp)
  28074c:	dec00204 	addi	sp,sp,8
  280750:	f800283a 	ret

00280754 <reset_keyboard>:


alt_u32 reset_keyboard(alt_up_ps2_dev *ps2)
{
  280754:	defffb04 	addi	sp,sp,-20
  280758:	dfc00415 	stw	ra,16(sp)
  28075c:	df000315 	stw	fp,12(sp)
  280760:	df000304 	addi	fp,sp,12
  280764:	e13fff15 	stw	r4,-4(fp)
    alt_u8 byte;
    // send out the reset command
    int status = alt_up_ps2_write_data_byte_with_ack(ps2, 0xff);
  280768:	e13fff17 	ldw	r4,-4(fp)
  28076c:	01403fc4 	movi	r5,255
  280770:	0280bd00 	call	280bd0 <alt_up_ps2_write_data_byte_with_ack>
  280774:	e0bffd15 	stw	r2,-12(fp)
    if ( status == 0)
  280778:	e0bffd17 	ldw	r2,-12(fp)
  28077c:	1004c03a 	cmpne	r2,r2,zero
  280780:	10000e1e 	bne	r2,zero,2807bc <reset_keyboard+0x68>
    {
        // received the ACK for reset, now check the BAT result
        status = alt_up_ps2_read_data_byte(ps2, &byte);
  280784:	e17ffe04 	addi	r5,fp,-8
  280788:	e13fff17 	ldw	r4,-4(fp)
  28078c:	0280cec0 	call	280cec <alt_up_ps2_read_data_byte>
  280790:	e0bffd15 	stw	r2,-12(fp)
        if (status == 0 && byte == 0xAA)
  280794:	e0bffd17 	ldw	r2,-12(fp)
  280798:	1004c03a 	cmpne	r2,r2,zero
  28079c:	1000051e 	bne	r2,zero,2807b4 <reset_keyboard+0x60>
  2807a0:	e0bffe03 	ldbu	r2,-8(fp)
  2807a4:	10803fcc 	andi	r2,r2,255
  2807a8:	10802a98 	cmpnei	r2,r2,170
  2807ac:	1000011e 	bne	r2,zero,2807b4 <reset_keyboard+0x60>
  2807b0:	00000206 	br	2807bc <reset_keyboard+0x68>
            // BAT succeed
        }
        else
        {
            // BAT failed
            status = -1;
  2807b4:	00bfffc4 	movi	r2,-1
  2807b8:	e0bffd15 	stw	r2,-12(fp)
        }
    }
    return status;
  2807bc:	e0bffd17 	ldw	r2,-12(fp)
}
  2807c0:	e037883a 	mov	sp,fp
  2807c4:	dfc00117 	ldw	ra,4(sp)
  2807c8:	df000017 	ldw	fp,0(sp)
  2807cc:	dec00204 	addi	sp,sp,8
  2807d0:	f800283a 	ret

002807d4 <read_RI_bit>:

#define PS2_ACK 	(0xFA)

//////////////////////////////////////////////////////////////////////////////////////////////
// Internal Functions
alt_u8 read_RI_bit(alt_u32 ctrl_reg) {
  2807d4:	defffd04 	addi	sp,sp,-12
  2807d8:	df000215 	stw	fp,8(sp)
  2807dc:	df000204 	addi	fp,sp,8
  2807e0:	e13fff15 	stw	r4,-4(fp)
	alt_u8 ri = (alt_u8) ((ctrl_reg & ALT_UP_PS2_PORT_CTRL_REG_RI_MSK)
			>> ALT_UP_PS2_PORT_CTRL_REG_RI_OFST);
  2807e4:	e0bfff17 	ldw	r2,-4(fp)
  2807e8:	1080400c 	andi	r2,r2,256
  2807ec:	1004d23a 	srli	r2,r2,8
  2807f0:	e0bffe05 	stb	r2,-8(fp)
	return ri;
  2807f4:	e0bffe03 	ldbu	r2,-8(fp)
}
  2807f8:	e037883a 	mov	sp,fp
  2807fc:	df000017 	ldw	fp,0(sp)
  280800:	dec00104 	addi	sp,sp,4
  280804:	f800283a 	ret

00280808 <read_RE_bit>:

alt_u8 read_RE_bit(alt_u32 ctrl_reg) {
  280808:	defffd04 	addi	sp,sp,-12
  28080c:	df000215 	stw	fp,8(sp)
  280810:	df000204 	addi	fp,sp,8
  280814:	e13fff15 	stw	r4,-4(fp)
	alt_u8 re = (alt_u8) ((ctrl_reg & ALT_UP_PS2_PORT_CTRL_REG_RE_MSK)
			>> ALT_UP_PS2_PORT_CTRL_REG_RE_OFST);
  280818:	e0bfff17 	ldw	r2,-4(fp)
  28081c:	1080004c 	andi	r2,r2,1
  280820:	e0bffe05 	stb	r2,-8(fp)
	return re;
  280824:	e0bffe03 	ldbu	r2,-8(fp)
}
  280828:	e037883a 	mov	sp,fp
  28082c:	df000017 	ldw	fp,0(sp)
  280830:	dec00104 	addi	sp,sp,4
  280834:	f800283a 	ret

00280838 <read_CE_bit>:

alt_u8 read_CE_bit(alt_u32 ctrl_reg) {
  280838:	defffd04 	addi	sp,sp,-12
  28083c:	df000215 	stw	fp,8(sp)
  280840:	df000204 	addi	fp,sp,8
  280844:	e13fff15 	stw	r4,-4(fp)
	alt_u8 re = (alt_u8) ((ctrl_reg & ALT_UP_PS2_PORT_CTRL_REG_CE_MSK)
			>> ALT_UP_PS2_PORT_CTRL_REG_CE_OFST);
  280848:	e0bfff17 	ldw	r2,-4(fp)
  28084c:	1081000c 	andi	r2,r2,1024
  280850:	1004d2ba 	srli	r2,r2,10
  280854:	e0bffe05 	stb	r2,-8(fp)
	return re;
  280858:	e0bffe03 	ldbu	r2,-8(fp)
}
  28085c:	e037883a 	mov	sp,fp
  280860:	df000017 	ldw	fp,0(sp)
  280864:	dec00104 	addi	sp,sp,4
  280868:	f800283a 	ret

0028086c <read_num_bytes_available>:

alt_u16 read_num_bytes_available(alt_u32 data_reg) {
  28086c:	defffd04 	addi	sp,sp,-12
  280870:	df000215 	stw	fp,8(sp)
  280874:	df000204 	addi	fp,sp,8
  280878:	e13fff15 	stw	r4,-4(fp)
	alt_u16 ravail = (alt_u16) ((data_reg & ALT_UP_PS2_PORT_DATA_REG_RAVAIL_MSK)
			>> ALT_UP_PS2_PORT_DATA_REG_RAVAIL_OFST);
  28087c:	e0bfff17 	ldw	r2,-4(fp)
  280880:	10bfffec 	andhi	r2,r2,65535
  280884:	1004d43a 	srli	r2,r2,16
  280888:	e0bffe0d 	sth	r2,-8(fp)
	return ravail;
  28088c:	e0bffe0b 	ldhu	r2,-8(fp)
}
  280890:	e037883a 	mov	sp,fp
  280894:	df000017 	ldw	fp,0(sp)
  280898:	dec00104 	addi	sp,sp,4
  28089c:	f800283a 	ret

002808a0 <read_data_valid>:

alt_u8 read_data_valid(alt_u32 data_reg) {
  2808a0:	defffd04 	addi	sp,sp,-12
  2808a4:	df000215 	stw	fp,8(sp)
  2808a8:	df000204 	addi	fp,sp,8
  2808ac:	e13fff15 	stw	r4,-4(fp)
	alt_u8 rvalid = (alt_u8) ((data_reg & ALT_UP_PS2_PORT_DATA_REG_RVALID_MSK)
			>> ALT_UP_PS2_PORT_DATA_REG_RVALID_OFST);
  2808b0:	e0bfff17 	ldw	r2,-4(fp)
  2808b4:	10a0000c 	andi	r2,r2,32768
  2808b8:	1004d3fa 	srli	r2,r2,15
  2808bc:	e0bffe05 	stb	r2,-8(fp)
	return rvalid;
  2808c0:	e0bffe03 	ldbu	r2,-8(fp)
}
  2808c4:	e037883a 	mov	sp,fp
  2808c8:	df000017 	ldw	fp,0(sp)
  2808cc:	dec00104 	addi	sp,sp,4
  2808d0:	f800283a 	ret

002808d4 <read_data_byte>:

alt_u8 read_data_byte(alt_u32 data_reg) {
  2808d4:	defffd04 	addi	sp,sp,-12
  2808d8:	df000215 	stw	fp,8(sp)
  2808dc:	df000204 	addi	fp,sp,8
  2808e0:	e13fff15 	stw	r4,-4(fp)
	alt_u8 data = (alt_u8) ((data_reg & ALT_UP_PS2_PORT_DATA_REG_DATA_MSK)
			>> ALT_UP_PS2_PORT_DATA_REG_DATA_OFST);
  2808e4:	e0bfff17 	ldw	r2,-4(fp)
  2808e8:	e0bffe05 	stb	r2,-8(fp)
	return data;
  2808ec:	e0bffe03 	ldbu	r2,-8(fp)
}
  2808f0:	e037883a 	mov	sp,fp
  2808f4:	df000017 	ldw	fp,0(sp)
  2808f8:	dec00104 	addi	sp,sp,4
  2808fc:	f800283a 	ret

00280900 <alt_up_ps2_init>:

//////////////////////////////////////////////////////////////////////////////////////////////
// HAL Functions
void alt_up_ps2_init(alt_up_ps2_dev *ps2) {
  280900:	defffb04 	addi	sp,sp,-20
  280904:	dfc00415 	stw	ra,16(sp)
  280908:	df000315 	stw	fp,12(sp)
  28090c:	df000304 	addi	fp,sp,12
  280910:	e13fff15 	stw	r4,-4(fp)
//	printf("Initializing PS2 Device...\n");
	// initialize the device
	unsigned char byte;
	//send the reset request, wait for ACK
	int status = alt_up_ps2_write_data_byte_with_ack(ps2, 0xff);
  280914:	e13fff17 	ldw	r4,-4(fp)
  280918:	01403fc4 	movi	r5,255
  28091c:	0280bd00 	call	280bd0 <alt_up_ps2_write_data_byte_with_ack>
  280920:	e0bffd15 	stw	r2,-12(fp)
//	printf("status: %d\n", status);
//	printf("timout: %u\n", ps2->timeout);
	if (status == 0) {
  280924:	e0bffd17 	ldw	r2,-12(fp)
  280928:	1004c03a 	cmpne	r2,r2,zero
  28092c:	1000281e 	bne	r2,zero,2809d0 <alt_up_ps2_init+0xd0>
//		alt_printf("Reset succeeded!\n");
		// reset succeed, now try to get the BAT result, AA means passed
//		printf("Press any key...\n");
		ps2->timeout = ps2->timeout * 2;
  280930:	e0bfff17 	ldw	r2,-4(fp)
  280934:	10800c17 	ldw	r2,48(r2)
  280938:	1085883a 	add	r2,r2,r2
  28093c:	1007883a 	mov	r3,r2
  280940:	e0bfff17 	ldw	r2,-4(fp)
  280944:	10c00c15 	stw	r3,48(r2)
		status = alt_up_ps2_read_data_byte_timeout(ps2, &byte);
  280948:	e17ffe04 	addi	r5,fp,-8
  28094c:	e13fff17 	ldw	r4,-4(fp)
  280950:	0280c3c0 	call	280c3c <alt_up_ps2_read_data_byte_timeout>
  280954:	e0bffd15 	stw	r2,-12(fp)
//		printf("status: %d\n", status);
//		printf("byte: %u\n", byte);
		if (status == 0 && byte == 0xAA) {
  280958:	e0bffd17 	ldw	r2,-12(fp)
  28095c:	1004c03a 	cmpne	r2,r2,zero
  280960:	10001b1e 	bne	r2,zero,2809d0 <alt_up_ps2_init+0xd0>
  280964:	e0bffe03 	ldbu	r2,-8(fp)
  280968:	10803fcc 	andi	r2,r2,255
  28096c:	10802a98 	cmpnei	r2,r2,170
  280970:	1000171e 	bne	r2,zero,2809d0 <alt_up_ps2_init+0xd0>
//			alt_printf("Getting the 2nd byte...\n");
			//get the 2nd byte
			status = alt_up_ps2_read_data_byte_timeout(ps2, &byte);
  280974:	e17ffe04 	addi	r5,fp,-8
  280978:	e13fff17 	ldw	r4,-4(fp)
  28097c:	0280c3c0 	call	280c3c <alt_up_ps2_read_data_byte_timeout>
  280980:	e0bffd15 	stw	r2,-12(fp)
//			printf("status: %d\n", status);
//			printf("byte: %u\n", byte);
			if (status == -ETIMEDOUT) {
  280984:	e0bffd17 	ldw	r2,-12(fp)
  280988:	10bfe318 	cmpnei	r2,r2,-116
  28098c:	1000041e 	bne	r2,zero,2809a0 <alt_up_ps2_init+0xa0>
//				alt_printf("Device type is keyboard!\n");
				//for keyboard, only 2 bytes are sent(ACK, PASS/FAIL), so timeout
				ps2->device_type = PS2_KEYBOARD;
  280990:	e0ffff17 	ldw	r3,-4(fp)
  280994:	00800044 	movi	r2,1
  280998:	18800d15 	stw	r2,52(r3)
  28099c:	00000c06 	br	2809d0 <alt_up_ps2_init+0xd0>
			} else if (status == 0 && byte == 0x00) {
  2809a0:	e0bffd17 	ldw	r2,-12(fp)
  2809a4:	1004c03a 	cmpne	r2,r2,zero
  2809a8:	1000091e 	bne	r2,zero,2809d0 <alt_up_ps2_init+0xd0>
  2809ac:	e0bffe03 	ldbu	r2,-8(fp)
  2809b0:	10803fcc 	andi	r2,r2,255
  2809b4:	1004c03a 	cmpne	r2,r2,zero
  2809b8:	1000051e 	bne	r2,zero,2809d0 <alt_up_ps2_init+0xd0>
//				alt_printf("Device type is mouse!\n");
				//for mouse, it will sent out 0x00 after sending out ACK and PASS/FAIL.
				ps2->device_type = PS2_MOUSE;
  2809bc:	e0bfff17 	ldw	r2,-4(fp)
  2809c0:	10000d15 	stw	zero,52(r2)
				(void) alt_up_ps2_write_data_byte(ps2, 0xf4); // enable data from mouse
  2809c4:	e13fff17 	ldw	r4,-4(fp)
  2809c8:	01403d04 	movi	r5,244
  2809cc:	0280ae80 	call	280ae8 <alt_up_ps2_write_data_byte>
			}
		}
	}
}
  2809d0:	e037883a 	mov	sp,fp
  2809d4:	dfc00117 	ldw	ra,4(sp)
  2809d8:	df000017 	ldw	fp,0(sp)
  2809dc:	dec00204 	addi	sp,sp,8
  2809e0:	f800283a 	ret

002809e4 <alt_up_ps2_clear_interrupt_flag>:

void alt_up_ps2_clear_interrupt_flag(alt_up_ps2_dev *ps2) {
  2809e4:	defffd04 	addi	sp,sp,-12
  2809e8:	df000215 	stw	fp,8(sp)
  2809ec:	df000204 	addi	fp,sp,8
  2809f0:	e13fff15 	stw	r4,-4(fp)
	unsigned int ctrl_reg;
	ctrl_reg = IORD_ALT_UP_PS2_PORT_CTRL_REG(ps2->base);
  2809f4:	e0bfff17 	ldw	r2,-4(fp)
  2809f8:	10800a17 	ldw	r2,40(r2)
  2809fc:	10800104 	addi	r2,r2,4
  280a00:	10800037 	ldwio	r2,0(r2)
  280a04:	e0bffe15 	stw	r2,-8(fp)
	// set RI to 0 while maintaining other bits the same
	ctrl_reg &= ~ALT_UP_PS2_PORT_CTRL_REG_RI_MSK;
  280a08:	e0fffe17 	ldw	r3,-8(fp)
  280a0c:	00bfbfc4 	movi	r2,-257
  280a10:	1884703a 	and	r2,r3,r2
  280a14:	e0bffe15 	stw	r2,-8(fp)
	IOWR_ALT_UP_PS2_PORT_CTRL_REG(ps2->base, ctrl_reg);
  280a18:	e0bfff17 	ldw	r2,-4(fp)
  280a1c:	10800a17 	ldw	r2,40(r2)
  280a20:	10800104 	addi	r2,r2,4
  280a24:	e0fffe17 	ldw	r3,-8(fp)
  280a28:	10c00035 	stwio	r3,0(r2)
}
  280a2c:	e037883a 	mov	sp,fp
  280a30:	df000017 	ldw	fp,0(sp)
  280a34:	dec00104 	addi	sp,sp,4
  280a38:	f800283a 	ret

00280a3c <alt_up_ps2_enable_read_interrupt>:

void alt_up_ps2_enable_read_interrupt(alt_up_ps2_dev *ps2) {
  280a3c:	defffd04 	addi	sp,sp,-12
  280a40:	df000215 	stw	fp,8(sp)
  280a44:	df000204 	addi	fp,sp,8
  280a48:	e13fff15 	stw	r4,-4(fp)
	unsigned int ctrl_reg;
	ctrl_reg = IORD_ALT_UP_PS2_PORT_CTRL_REG(ps2->base);
  280a4c:	e0bfff17 	ldw	r2,-4(fp)
  280a50:	10800a17 	ldw	r2,40(r2)
  280a54:	10800104 	addi	r2,r2,4
  280a58:	10800037 	ldwio	r2,0(r2)
  280a5c:	e0bffe15 	stw	r2,-8(fp)
	// set RE to 1 while maintaining other bits the same
	ctrl_reg |= ALT_UP_PS2_PORT_CTRL_REG_RE_MSK;
  280a60:	e0bffe17 	ldw	r2,-8(fp)
  280a64:	10800054 	ori	r2,r2,1
  280a68:	e0bffe15 	stw	r2,-8(fp)
	IOWR_ALT_UP_PS2_PORT_CTRL_REG(ps2->base, ctrl_reg);
  280a6c:	e0bfff17 	ldw	r2,-4(fp)
  280a70:	10800a17 	ldw	r2,40(r2)
  280a74:	10800104 	addi	r2,r2,4
  280a78:	e0fffe17 	ldw	r3,-8(fp)
  280a7c:	10c00035 	stwio	r3,0(r2)
}
  280a80:	e037883a 	mov	sp,fp
  280a84:	df000017 	ldw	fp,0(sp)
  280a88:	dec00104 	addi	sp,sp,4
  280a8c:	f800283a 	ret

00280a90 <alt_up_ps2_disable_read_interrupt>:

void alt_up_ps2_disable_read_interrupt(alt_up_ps2_dev *ps2) {
  280a90:	defffd04 	addi	sp,sp,-12
  280a94:	df000215 	stw	fp,8(sp)
  280a98:	df000204 	addi	fp,sp,8
  280a9c:	e13fff15 	stw	r4,-4(fp)
	unsigned int ctrl_reg;
	ctrl_reg = IORD_ALT_UP_PS2_PORT_CTRL_REG(ps2->base);
  280aa0:	e0bfff17 	ldw	r2,-4(fp)
  280aa4:	10800a17 	ldw	r2,40(r2)
  280aa8:	10800104 	addi	r2,r2,4
  280aac:	10800037 	ldwio	r2,0(r2)
  280ab0:	e0bffe15 	stw	r2,-8(fp)
	// set RE to 0 while maintaining other bits the same
	ctrl_reg &= ~ALT_UP_PS2_PORT_CTRL_REG_RE_MSK;
  280ab4:	e0fffe17 	ldw	r3,-8(fp)
  280ab8:	00bfff84 	movi	r2,-2
  280abc:	1884703a 	and	r2,r3,r2
  280ac0:	e0bffe15 	stw	r2,-8(fp)
	IOWR_ALT_UP_PS2_PORT_CTRL_REG(ps2->base, ctrl_reg);
  280ac4:	e0bfff17 	ldw	r2,-4(fp)
  280ac8:	10800a17 	ldw	r2,40(r2)
  280acc:	10800104 	addi	r2,r2,4
  280ad0:	e0fffe17 	ldw	r3,-8(fp)
  280ad4:	10c00035 	stwio	r3,0(r2)
}
  280ad8:	e037883a 	mov	sp,fp
  280adc:	df000017 	ldw	fp,0(sp)
  280ae0:	dec00104 	addi	sp,sp,4
  280ae4:	f800283a 	ret

00280ae8 <alt_up_ps2_write_data_byte>:

int alt_up_ps2_write_data_byte(alt_up_ps2_dev *ps2, unsigned char byte) {
  280ae8:	defffa04 	addi	sp,sp,-24
  280aec:	dfc00515 	stw	ra,20(sp)
  280af0:	df000415 	stw	fp,16(sp)
  280af4:	df000404 	addi	fp,sp,16
  280af8:	e13ffd15 	stw	r4,-12(fp)
  280afc:	e17ffe05 	stb	r5,-8(fp)
	//note: data are only located at the lower 8 bits
	//note: the software send command to the PS2 peripheral through the data
	//		register rather than the control register
	IOWR_ALT_UP_PS2_PORT_DATA(ps2->base, byte);
  280b00:	e0bffd17 	ldw	r2,-12(fp)
  280b04:	10800a17 	ldw	r2,40(r2)
  280b08:	e0fffe03 	ldbu	r3,-8(fp)
  280b0c:	10c00025 	stbio	r3,0(r2)
	alt_u32 ctrl_reg = IORD_ALT_UP_PS2_PORT_CTRL_REG(ps2->base);
  280b10:	e0bffd17 	ldw	r2,-12(fp)
  280b14:	10800a17 	ldw	r2,40(r2)
  280b18:	10800104 	addi	r2,r2,4
  280b1c:	10800037 	ldwio	r2,0(r2)
  280b20:	e0bffc15 	stw	r2,-16(fp)
	if (read_CE_bit(ctrl_reg)) {
  280b24:	e13ffc17 	ldw	r4,-16(fp)
  280b28:	02808380 	call	280838 <read_CE_bit>
  280b2c:	10803fcc 	andi	r2,r2,255
  280b30:	1005003a 	cmpeq	r2,r2,zero
  280b34:	1000031e 	bne	r2,zero,280b44 <alt_up_ps2_write_data_byte+0x5c>
		//CE bit is set --> error occurs on sending commands
		return -EIO;
  280b38:	00bffec4 	movi	r2,-5
  280b3c:	e0bfff15 	stw	r2,-4(fp)
  280b40:	00000106 	br	280b48 <alt_up_ps2_write_data_byte+0x60>
	}
	return 0;
  280b44:	e03fff15 	stw	zero,-4(fp)
  280b48:	e0bfff17 	ldw	r2,-4(fp)
}
  280b4c:	e037883a 	mov	sp,fp
  280b50:	dfc00117 	ldw	ra,4(sp)
  280b54:	df000017 	ldw	fp,0(sp)
  280b58:	dec00204 	addi	sp,sp,8
  280b5c:	f800283a 	ret

00280b60 <alt_up_ps2_wait_for_ack>:

int alt_up_ps2_wait_for_ack(alt_up_ps2_dev *ps2) {
  280b60:	defffb04 	addi	sp,sp,-20
  280b64:	dfc00415 	stw	ra,16(sp)
  280b68:	df000315 	stw	fp,12(sp)
  280b6c:	df000304 	addi	fp,sp,12
  280b70:	e13ffe15 	stw	r4,-8(fp)
	unsigned char data = 0;
  280b74:	e03ffd45 	stb	zero,-11(fp)
	unsigned char status = 0;
  280b78:	e03ffd05 	stb	zero,-12(fp)
	do {
		status = alt_up_ps2_read_data_byte_timeout(ps2, &data);
  280b7c:	e17ffd44 	addi	r5,fp,-11
  280b80:	e13ffe17 	ldw	r4,-8(fp)
  280b84:	0280c3c0 	call	280c3c <alt_up_ps2_read_data_byte_timeout>
  280b88:	e0bffd05 	stb	r2,-12(fp)
		if (status == 0) {
  280b8c:	e0bffd03 	ldbu	r2,-12(fp)
  280b90:	1004c03a 	cmpne	r2,r2,zero
  280b94:	1000061e 	bne	r2,zero,280bb0 <alt_up_ps2_wait_for_ack+0x50>
			if (data == PS2_ACK)
  280b98:	e0bffd43 	ldbu	r2,-11(fp)
  280b9c:	10803fcc 	andi	r2,r2,255
  280ba0:	10803e98 	cmpnei	r2,r2,250
  280ba4:	103ff51e 	bne	r2,zero,280b7c <alt_up_ps2_wait_for_ack+0x1c>
				return 0;
  280ba8:	e03fff15 	stw	zero,-4(fp)
  280bac:	00000206 	br	280bb8 <alt_up_ps2_wait_for_ack+0x58>
		} else {
			return status;
  280bb0:	e0bffd03 	ldbu	r2,-12(fp)
  280bb4:	e0bfff15 	stw	r2,-4(fp)
  280bb8:	e0bfff17 	ldw	r2,-4(fp)
		}
	} while (1);
	return -ETIMEDOUT;
}
  280bbc:	e037883a 	mov	sp,fp
  280bc0:	dfc00117 	ldw	ra,4(sp)
  280bc4:	df000017 	ldw	fp,0(sp)
  280bc8:	dec00204 	addi	sp,sp,8
  280bcc:	f800283a 	ret

00280bd0 <alt_up_ps2_write_data_byte_with_ack>:

int alt_up_ps2_write_data_byte_with_ack(alt_up_ps2_dev *ps2, unsigned char byte) {
  280bd0:	defff904 	addi	sp,sp,-28
  280bd4:	dfc00615 	stw	ra,24(sp)
  280bd8:	df000515 	stw	fp,20(sp)
  280bdc:	df000504 	addi	fp,sp,20
  280be0:	e13ffd15 	stw	r4,-12(fp)
  280be4:	e17ffe05 	stb	r5,-8(fp)
	int send_status = alt_up_ps2_write_data_byte(ps2, byte);
  280be8:	e17ffe03 	ldbu	r5,-8(fp)
  280bec:	e13ffd17 	ldw	r4,-12(fp)
  280bf0:	0280ae80 	call	280ae8 <alt_up_ps2_write_data_byte>
  280bf4:	e0bffc15 	stw	r2,-16(fp)
	if (send_status != 0)
  280bf8:	e0bffc17 	ldw	r2,-16(fp)
  280bfc:	1005003a 	cmpeq	r2,r2,zero
  280c00:	1000031e 	bne	r2,zero,280c10 <alt_up_ps2_write_data_byte_with_ack+0x40>
		// return on sending error
		return send_status;
  280c04:	e0bffc17 	ldw	r2,-16(fp)
  280c08:	e0bfff15 	stw	r2,-4(fp)
  280c0c:	00000506 	br	280c24 <alt_up_ps2_write_data_byte_with_ack+0x54>

	int ack_status = alt_up_ps2_wait_for_ack(ps2);
  280c10:	e13ffd17 	ldw	r4,-12(fp)
  280c14:	0280b600 	call	280b60 <alt_up_ps2_wait_for_ack>
  280c18:	e0bffb15 	stw	r2,-20(fp)
	return ack_status;
  280c1c:	e0bffb17 	ldw	r2,-20(fp)
  280c20:	e0bfff15 	stw	r2,-4(fp)
  280c24:	e0bfff17 	ldw	r2,-4(fp)
}
  280c28:	e037883a 	mov	sp,fp
  280c2c:	dfc00117 	ldw	ra,4(sp)
  280c30:	df000017 	ldw	fp,0(sp)
  280c34:	dec00204 	addi	sp,sp,8
  280c38:	f800283a 	ret

00280c3c <alt_up_ps2_read_data_byte_timeout>:

int alt_up_ps2_read_data_byte_timeout(alt_up_ps2_dev *ps2, unsigned char *byte) {
  280c3c:	defff904 	addi	sp,sp,-28
  280c40:	dfc00615 	stw	ra,24(sp)
  280c44:	df000515 	stw	fp,20(sp)
  280c48:	df000504 	addi	fp,sp,20
  280c4c:	e13ffd15 	stw	r4,-12(fp)
  280c50:	e17ffe15 	stw	r5,-8(fp)
	unsigned int data_reg = 0;
  280c54:	e03ffc15 	stw	zero,-16(fp)
	unsigned int count = 0;
  280c58:	e03ffb15 	stw	zero,-20(fp)
  280c5c:	00000006 	br	280c60 <alt_up_ps2_read_data_byte_timeout+0x24>
//	printf("Entering alt_up_ps2_read_data_byte_timeout...\n");
	//ps2->timeout=0;
	do {
		count++;
  280c60:	e0bffb17 	ldw	r2,-20(fp)
  280c64:	10800044 	addi	r2,r2,1
  280c68:	e0bffb15 	stw	r2,-20(fp)
		data_reg = IORD_ALT_UP_PS2_PORT_DATA_REG(ps2->base);
  280c6c:	e0bffd17 	ldw	r2,-12(fp)
  280c70:	10800a17 	ldw	r2,40(r2)
  280c74:	10800037 	ldwio	r2,0(r2)
  280c78:	e0bffc15 	stw	r2,-16(fp)
		if (read_data_valid(data_reg)) {
  280c7c:	e13ffc17 	ldw	r4,-16(fp)
  280c80:	02808a00 	call	2808a0 <read_data_valid>
  280c84:	10803fcc 	andi	r2,r2,255
  280c88:	1005003a 	cmpeq	r2,r2,zero
  280c8c:	1000071e 	bne	r2,zero,280cac <alt_up_ps2_read_data_byte_timeout+0x70>
			*byte = read_data_byte(data_reg);
  280c90:	e13ffc17 	ldw	r4,-16(fp)
  280c94:	02808d40 	call	2808d4 <read_data_byte>
  280c98:	1007883a 	mov	r3,r2
  280c9c:	e0bffe17 	ldw	r2,-8(fp)
  280ca0:	10c00005 	stb	r3,0(r2)
			return 0;
  280ca4:	e03fff15 	stw	zero,-4(fp)
  280ca8:	00000a06 	br	280cd4 <alt_up_ps2_read_data_byte_timeout+0x98>
		}
		//timeout = 0 means to disable the timeout
		if (ps2->timeout != 0 && count > ps2->timeout) {
  280cac:	e0bffd17 	ldw	r2,-12(fp)
  280cb0:	10800c17 	ldw	r2,48(r2)
  280cb4:	1005003a 	cmpeq	r2,r2,zero
  280cb8:	103fe91e 	bne	r2,zero,280c60 <alt_up_ps2_read_data_byte_timeout+0x24>
  280cbc:	e0bffd17 	ldw	r2,-12(fp)
  280cc0:	10c00c17 	ldw	r3,48(r2)
  280cc4:	e0bffb17 	ldw	r2,-20(fp)
  280cc8:	18bfe52e 	bgeu	r3,r2,280c60 <alt_up_ps2_read_data_byte_timeout+0x24>
//			printf("timed out!\n");
			return -ETIMEDOUT;
  280ccc:	00bfe304 	movi	r2,-116
  280cd0:	e0bfff15 	stw	r2,-4(fp)
		}
	} while (1);
  280cd4:	e0bfff17 	ldw	r2,-4(fp)
}
  280cd8:	e037883a 	mov	sp,fp
  280cdc:	dfc00117 	ldw	ra,4(sp)
  280ce0:	df000017 	ldw	fp,0(sp)
  280ce4:	dec00204 	addi	sp,sp,8
  280ce8:	f800283a 	ret

00280cec <alt_up_ps2_read_data_byte>:

int alt_up_ps2_read_data_byte(alt_up_ps2_dev *ps2, unsigned char *byte) {
  280cec:	defffa04 	addi	sp,sp,-24
  280cf0:	dfc00515 	stw	ra,20(sp)
  280cf4:	df000415 	stw	fp,16(sp)
  280cf8:	df000404 	addi	fp,sp,16
  280cfc:	e13ffd15 	stw	r4,-12(fp)
  280d00:	e17ffe15 	stw	r5,-8(fp)
	unsigned int data_reg = 0;
  280d04:	e03ffc15 	stw	zero,-16(fp)
	data_reg = IORD_ALT_UP_PS2_PORT_DATA_REG(ps2->base);
  280d08:	e0bffd17 	ldw	r2,-12(fp)
  280d0c:	10800a17 	ldw	r2,40(r2)
  280d10:	10800037 	ldwio	r2,0(r2)
  280d14:	e0bffc15 	stw	r2,-16(fp)
	if (read_data_valid(data_reg)) {
  280d18:	e13ffc17 	ldw	r4,-16(fp)
  280d1c:	02808a00 	call	2808a0 <read_data_valid>
  280d20:	10803fcc 	andi	r2,r2,255
  280d24:	1005003a 	cmpeq	r2,r2,zero
  280d28:	1000071e 	bne	r2,zero,280d48 <alt_up_ps2_read_data_byte+0x5c>
		*byte = read_data_byte(data_reg);
  280d2c:	e13ffc17 	ldw	r4,-16(fp)
  280d30:	02808d40 	call	2808d4 <read_data_byte>
  280d34:	1007883a 	mov	r3,r2
  280d38:	e0bffe17 	ldw	r2,-8(fp)
  280d3c:	10c00005 	stb	r3,0(r2)
		return 0;
  280d40:	e03fff15 	stw	zero,-4(fp)
  280d44:	00000206 	br	280d50 <alt_up_ps2_read_data_byte+0x64>
	}
	return -1;
  280d48:	00bfffc4 	movi	r2,-1
  280d4c:	e0bfff15 	stw	r2,-4(fp)
  280d50:	e0bfff17 	ldw	r2,-4(fp)
}
  280d54:	e037883a 	mov	sp,fp
  280d58:	dfc00117 	ldw	ra,4(sp)
  280d5c:	df000017 	ldw	fp,0(sp)
  280d60:	dec00204 	addi	sp,sp,8
  280d64:	f800283a 	ret

00280d68 <alt_up_ps2_clear_fifo>:

void alt_up_ps2_clear_fifo(alt_up_ps2_dev *ps2) {
  280d68:	defffb04 	addi	sp,sp,-20
  280d6c:	dfc00415 	stw	ra,16(sp)
  280d70:	df000315 	stw	fp,12(sp)
  280d74:	df000304 	addi	fp,sp,12
  280d78:	e13fff15 	stw	r4,-4(fp)
	// The DATA byte of the data register will be automatically cleared after a read
	// So we simply keep reading it until there are no available bytes
	alt_u16 num = 0;
  280d7c:	e03ffe0d 	sth	zero,-8(fp)
	unsigned int data_reg = 0;
  280d80:	e03ffd15 	stw	zero,-12(fp)
	do {
		// read the data register (the DATA byte is cleared)
		data_reg = IORD_ALT_UP_PS2_PORT_DATA_REG(ps2->base);
  280d84:	e0bfff17 	ldw	r2,-4(fp)
  280d88:	10800a17 	ldw	r2,40(r2)
  280d8c:	10800037 	ldwio	r2,0(r2)
  280d90:	e0bffd15 	stw	r2,-12(fp)
		// get the number of available bytes from the RAVAIL part of data register
		num = read_num_bytes_available(data_reg);
  280d94:	e13ffd17 	ldw	r4,-12(fp)
  280d98:	028086c0 	call	28086c <read_num_bytes_available>
  280d9c:	e0bffe0d 	sth	r2,-8(fp)
	} while (num > 0);
  280da0:	e0bffe0b 	ldhu	r2,-8(fp)
  280da4:	1004c03a 	cmpne	r2,r2,zero
  280da8:	103ff61e 	bne	r2,zero,280d84 <alt_up_ps2_clear_fifo+0x1c>
}
  280dac:	e037883a 	mov	sp,fp
  280db0:	dfc00117 	ldw	ra,4(sp)
  280db4:	df000017 	ldw	fp,0(sp)
  280db8:	dec00204 	addi	sp,sp,8
  280dbc:	f800283a 	ret

00280dc0 <alt_up_ps2_read_fd>:

//////////////////////////////////////////////////////////////
// FD Functions
int alt_up_ps2_read_fd(alt_fd* fd, char* ptr, int len) {
  280dc0:	defff704 	addi	sp,sp,-36
  280dc4:	dfc00815 	stw	ra,32(sp)
  280dc8:	df000715 	stw	fp,28(sp)
  280dcc:	df000704 	addi	fp,sp,28
  280dd0:	e13ffc15 	stw	r4,-16(fp)
  280dd4:	e17ffd15 	stw	r5,-12(fp)
  280dd8:	e1bffe15 	stw	r6,-8(fp)
	alt_up_ps2_dev *ps2 = (alt_up_ps2_dev*) fd->dev;
  280ddc:	e0bffc17 	ldw	r2,-16(fp)
  280de0:	10800017 	ldw	r2,0(r2)
  280de4:	e0bffb15 	stw	r2,-20(fp)
	int status = 0;
  280de8:	e03ffa15 	stw	zero,-24(fp)
	int count = 0;
  280dec:	e03ff915 	stw	zero,-28(fp)
	while (count < len)
  280df0:	e0fff917 	ldw	r3,-28(fp)
  280df4:	e0bffe17 	ldw	r2,-8(fp)
  280df8:	18bffd16 	blt	r3,r2,280df0 <alt_up_ps2_read_fd+0x30>
		;
	{
		status = alt_up_ps2_read_data_byte_timeout(ps2, ptr++);
  280dfc:	e17ffd17 	ldw	r5,-12(fp)
  280e00:	e0bffd17 	ldw	r2,-12(fp)
  280e04:	10800044 	addi	r2,r2,1
  280e08:	e0bffd15 	stw	r2,-12(fp)
  280e0c:	e13ffb17 	ldw	r4,-20(fp)
  280e10:	0280c3c0 	call	280c3c <alt_up_ps2_read_data_byte_timeout>
  280e14:	e0bffa15 	stw	r2,-24(fp)
		if (status != 0)
  280e18:	e0bffa17 	ldw	r2,-24(fp)
  280e1c:	1005003a 	cmpeq	r2,r2,zero
  280e20:	1000031e 	bne	r2,zero,280e30 <alt_up_ps2_read_fd+0x70>
			return count;
  280e24:	e0bff917 	ldw	r2,-28(fp)
  280e28:	e0bfff15 	stw	r2,-4(fp)
  280e2c:	00000506 	br	280e44 <alt_up_ps2_read_fd+0x84>
		count++;
  280e30:	e0bff917 	ldw	r2,-28(fp)
  280e34:	10800044 	addi	r2,r2,1
  280e38:	e0bff915 	stw	r2,-28(fp)
	}
	return count;
  280e3c:	e0bff917 	ldw	r2,-28(fp)
  280e40:	e0bfff15 	stw	r2,-4(fp)
  280e44:	e0bfff17 	ldw	r2,-4(fp)
}
  280e48:	e037883a 	mov	sp,fp
  280e4c:	dfc00117 	ldw	ra,4(sp)
  280e50:	df000017 	ldw	fp,0(sp)
  280e54:	dec00204 	addi	sp,sp,8
  280e58:	f800283a 	ret

00280e5c <alt_up_ps2_write_fd>:

int alt_up_ps2_write_fd(alt_fd* fd, const char* ptr, int len) {
  280e5c:	defff704 	addi	sp,sp,-36
  280e60:	dfc00815 	stw	ra,32(sp)
  280e64:	df000715 	stw	fp,28(sp)
  280e68:	df000704 	addi	fp,sp,28
  280e6c:	e13ffc15 	stw	r4,-16(fp)
  280e70:	e17ffd15 	stw	r5,-12(fp)
  280e74:	e1bffe15 	stw	r6,-8(fp)
	alt_up_ps2_dev *ps2 = (alt_up_ps2_dev*) fd->dev;
  280e78:	e0bffc17 	ldw	r2,-16(fp)
  280e7c:	10800017 	ldw	r2,0(r2)
  280e80:	e0bffb15 	stw	r2,-20(fp)
	int status = 0;
  280e84:	e03ffa15 	stw	zero,-24(fp)
	int count = 0;
  280e88:	e03ff915 	stw	zero,-28(fp)
	while (count < len) {
  280e8c:	00001206 	br	280ed8 <alt_up_ps2_write_fd+0x7c>
		status = alt_up_ps2_write_data_byte(ps2, *(ptr++));
  280e90:	e0bffd17 	ldw	r2,-12(fp)
  280e94:	10800003 	ldbu	r2,0(r2)
  280e98:	11403fcc 	andi	r5,r2,255
  280e9c:	e0bffd17 	ldw	r2,-12(fp)
  280ea0:	10800044 	addi	r2,r2,1
  280ea4:	e0bffd15 	stw	r2,-12(fp)
  280ea8:	e13ffb17 	ldw	r4,-20(fp)
  280eac:	0280ae80 	call	280ae8 <alt_up_ps2_write_data_byte>
  280eb0:	e0bffa15 	stw	r2,-24(fp)
		if (status != 0)
  280eb4:	e0bffa17 	ldw	r2,-24(fp)
  280eb8:	1005003a 	cmpeq	r2,r2,zero
  280ebc:	1000031e 	bne	r2,zero,280ecc <alt_up_ps2_write_fd+0x70>
			return count;
  280ec0:	e0bff917 	ldw	r2,-28(fp)
  280ec4:	e0bfff15 	stw	r2,-4(fp)
  280ec8:	00000806 	br	280eec <alt_up_ps2_write_fd+0x90>
		count++;
  280ecc:	e0bff917 	ldw	r2,-28(fp)
  280ed0:	10800044 	addi	r2,r2,1
  280ed4:	e0bff915 	stw	r2,-28(fp)

int alt_up_ps2_write_fd(alt_fd* fd, const char* ptr, int len) {
	alt_up_ps2_dev *ps2 = (alt_up_ps2_dev*) fd->dev;
	int status = 0;
	int count = 0;
	while (count < len) {
  280ed8:	e0fff917 	ldw	r3,-28(fp)
  280edc:	e0bffe17 	ldw	r2,-8(fp)
  280ee0:	18bfeb16 	blt	r3,r2,280e90 <alt_up_ps2_write_fd+0x34>
		status = alt_up_ps2_write_data_byte(ps2, *(ptr++));
		if (status != 0)
			return count;
		count++;
	}
	return count;
  280ee4:	e0bff917 	ldw	r2,-28(fp)
  280ee8:	e0bfff15 	stw	r2,-4(fp)
  280eec:	e0bfff17 	ldw	r2,-4(fp)
}
  280ef0:	e037883a 	mov	sp,fp
  280ef4:	dfc00117 	ldw	ra,4(sp)
  280ef8:	df000017 	ldw	fp,0(sp)
  280efc:	dec00204 	addi	sp,sp,8
  280f00:	f800283a 	ret

00280f04 <alt_up_ps2_open_dev>:

alt_up_ps2_dev* alt_up_ps2_open_dev(const char* name) {
  280f04:	defffc04 	addi	sp,sp,-16
  280f08:	dfc00315 	stw	ra,12(sp)
  280f0c:	df000215 	stw	fp,8(sp)
  280f10:	df000204 	addi	fp,sp,8
  280f14:	e13fff15 	stw	r4,-4(fp)
	// find the device from the device list
	// (see altera_hal/HAL/inc/priv/alt_file.h
	// and altera_hal/HAL/src/alt_find_dev.c
	// for details)
	alt_up_ps2_dev *dev = (alt_up_ps2_dev*) alt_find_dev(name, &alt_dev_list);
  280f18:	e13fff17 	ldw	r4,-4(fp)
  280f1c:	01400a74 	movhi	r5,41
  280f20:	296b1504 	addi	r5,r5,-21420
  280f24:	028445c0 	call	28445c <alt_find_dev>
  280f28:	e0bffe15 	stw	r2,-8(fp)

	return dev;
  280f2c:	e0bffe17 	ldw	r2,-8(fp)
}
  280f30:	e037883a 	mov	sp,fp
  280f34:	dfc00117 	ldw	ra,4(sp)
  280f38:	df000017 	ldw	fp,0(sp)
  280f3c:	dec00204 	addi	sp,sp,8
  280f40:	f800283a 	ret

00280f44 <main>:
volatile int coordinateX, coordinateY;

static alt_u32 alt_alarm_func(void* isr_context, void* alt_u32);
static unsigned char translate_code(int code);

void main(void) {
  280f44:	defffd04 	addi	sp,sp,-12
  280f48:	dfc00215 	stw	ra,8(sp)
  280f4c:	df000115 	stw	fp,4(sp)
  280f50:	df000104 	addi	fp,sp,4
//	*alarm = &a2;

// Prints a generic print statement to indicate that main is running
	printf("Welcome to DES2-115\n");
  280f54:	01000a74 	movhi	r4,41
  280f58:	21230104 	addi	r4,r4,-29692
  280f5c:	0281de00 	call	281de0 <puts>
	*(red_LED_ptr) ^= 0x1; // Blinks LED0 using software delay
  280f60:	d0e00017 	ldw	r3,-32768(gp)
  280f64:	d0a00017 	ldw	r2,-32768(gp)
  280f68:	10800017 	ldw	r2,0(r2)
  280f6c:	1080005c 	xori	r2,r2,1
  280f70:	18800015 	stw	r2,0(r3)

	// Open the PS2 port
	ps2_keyboard = alt_up_ps2_open_dev(PS2_NAME);
  280f74:	01000a74 	movhi	r4,41
  280f78:	21230604 	addi	r4,r4,-29672
  280f7c:	0280f040 	call	280f04 <alt_up_ps2_open_dev>
  280f80:	d0a7ad15 	stw	r2,-24908(gp)

//	alt_printf("Reseting Keyboard...%d", reset_keyboard());

	if (ps2_keyboard == NULL)
  280f84:	d0a7ad17 	ldw	r2,-24908(gp)
  280f88:	1004c03a 	cmpne	r2,r2,zero
  280f8c:	1000041e 	bne	r2,zero,280fa0 <main+0x5c>
		alt_printf("Error: could not open character PS2 device\n");
  280f90:	01000a74 	movhi	r4,41
  280f94:	21230904 	addi	r4,r4,-29660
  280f98:	0284bec0 	call	284bec <alt_printf>
  280f9c:	00000306 	br	280fac <main+0x68>
	else
		alt_printf("Opened character PS2 device\n");
  280fa0:	01000a74 	movhi	r4,41
  280fa4:	21231404 	addi	r4,r4,-29616
  280fa8:	0284bec0 	call	284bec <alt_printf>

	// Initialize keyboard
	alt_up_ps2_init(ps2_keyboard);
  280fac:	d127ad17 	ldw	r4,-24908(gp)
  280fb0:	02809000 	call	280900 <alt_up_ps2_init>
	alt_u8 rate;
	rate = 0x00;
  280fb4:	e03fff05 	stb	zero,-4(fp)
	set_keyboard_rate(ps2_keyboard, rate);
  280fb8:	d127ad17 	ldw	r4,-24908(gp)
  280fbc:	e17fff03 	ldbu	r5,-4(fp)
  280fc0:	02805ec0 	call	2805ec <set_keyboard_rate>

//	printf("Device Type: %i\n", ps2_keyboard->device_type);

	alt_up_ps2_enable_read_interrupt(ps2_keyboard);
  280fc4:	d127ad17 	ldw	r4,-24908(gp)
  280fc8:	0280a3c0 	call	280a3c <alt_up_ps2_enable_read_interrupt>

	alt_irq_register(PS2_IRQ, NULL, alt_alarm_func);
  280fcc:	01000104 	movi	r4,4
  280fd0:	000b883a 	mov	r5,zero
  280fd4:	01800a34 	movhi	r6,40
  280fd8:	31842004 	addi	r6,r6,4224
  280fdc:	02846240 	call	284624 <alt_irq_register>

	//VGA

	char_buf_dev = alt_up_char_buffer_open_dev("/dev/char_buffer");
  280fe0:	01000a74 	movhi	r4,41
  280fe4:	21231c04 	addi	r4,r4,-29584
  280fe8:	028616c0 	call	28616c <alt_up_char_buffer_open_dev>
  280fec:	d0a7af15 	stw	r2,-24900(gp)
	// open the Char Buffer port
	if (char_buf_dev == NULL)
  280ff0:	d0a7af17 	ldw	r2,-24900(gp)
  280ff4:	1004c03a 	cmpne	r2,r2,zero
  280ff8:	1000041e 	bne	r2,zero,28100c <main+0xc8>
		alt_printf("Error: could not open char buffer device \n");
  280ffc:	01000a74 	movhi	r4,41
  281000:	21232104 	addi	r4,r4,-29564
  281004:	0284bec0 	call	284bec <alt_printf>
  281008:	00000306 	br	281018 <main+0xd4>
	else
		alt_printf("Opened char buffer device \n");
  28100c:	01000a74 	movhi	r4,41
  281010:	21232c04 	addi	r4,r4,-29520
  281014:	0284bec0 	call	284bec <alt_printf>

	alt_up_char_buffer_clear(char_buf_dev);
  281018:	d127af17 	ldw	r4,-24900(gp)
  28101c:	02863900 	call	286390 <alt_up_char_buffer_clear>
//	alt_up_char_buffer_string(char_buf_dev, "ECE4440 Team MSB", 5, 5);
	coordinateX = 5;
  281020:	00800144 	movi	r2,5
  281024:	d0a7b515 	stw	r2,-24876(gp)
	coordinateY = 5;
  281028:	00800144 	movi	r2,5
  28102c:	d0a7ae15 	stw	r2,-24904(gp)

		// open the Pixel Buffer port
		pixel_buf_dev = alt_up_pixel_buffer_dma_open_dev("/dev/pixel_buffer");
  281030:	01000a74 	movhi	r4,41
  281034:	21233304 	addi	r4,r4,-29492
  281038:	02863ec0 	call	2863ec <alt_up_pixel_buffer_dma_open_dev>
  28103c:	d0a7b415 	stw	r2,-24880(gp)
		if (pixel_buf_dev == NULL)
  281040:	d0a7b417 	ldw	r2,-24880(gp)
  281044:	1004c03a 	cmpne	r2,r2,zero
  281048:	1000041e 	bne	r2,zero,28105c <main+0x118>
			alt_printf("Error: could not open pixel buffer device \n");
  28104c:	01000a74 	movhi	r4,41
  281050:	21233804 	addi	r4,r4,-29472
  281054:	0284bec0 	call	284bec <alt_printf>
  281058:	00000306 	br	281068 <main+0x124>
		else
			alt_printf("Opened pixel buffer device \n");
  28105c:	01000a74 	movhi	r4,41
  281060:	21234304 	addi	r4,r4,-29428
  281064:	0284bec0 	call	284bec <alt_printf>
		//Clear and draw a blue box on the screen
		alt_up_pixel_buffer_dma_clear_screen(pixel_buf_dev, 0);
  281068:	d127b417 	ldw	r4,-24880(gp)
  28106c:	000b883a 	mov	r5,zero
  281070:	02866b00 	call	2866b0 <alt_up_pixel_buffer_dma_clear_screen>
		alt_up_pixel_buffer_dma_swap_buffers(pixel_buf_dev);
  281074:	d127b417 	ldw	r4,-24880(gp)
  281078:	02866240 	call	286624 <alt_up_pixel_buffer_dma_swap_buffers>

	while (1) {

	}
  28107c:	003fff06 	br	28107c <main+0x138>

00281080 <alt_alarm_func>:
}

static alt_u32 alt_alarm_func(void* isr_context, void* alt_u32) {
  281080:	defff804 	addi	sp,sp,-32
  281084:	dfc00715 	stw	ra,28(sp)
  281088:	df000615 	stw	fp,24(sp)
  28108c:	df000604 	addi	fp,sp,24
  281090:	e13ffe15 	stw	r4,-8(fp)
  281094:	e17fff15 	stw	r5,-4(fp)
	alt_up_ps2_disable_read_interrupt(ps2_keyboard);
  281098:	d127ad17 	ldw	r4,-24908(gp)
  28109c:	0280a900 	call	280a90 <alt_up_ps2_disable_read_interrupt>
//	printf("Old RI: %d...", read_RI_bit(ctrl_reg));
//	alt_up_ps2_clear_interrupt_flag(ps2_keyboard);
//	ctrl_reg = IORD_ALT_UP_PS2_PORT_CTRL_REG(ps2_keyboard->base);
//	printf("New RI: %d...\n", read_RI_bit(ctrl_reg));

	buf = (alt_u8 *) malloc(sizeof(alt_u8));
  2810a0:	01000044 	movi	r4,1
  2810a4:	02815c80 	call	2815c8 <malloc>
  2810a8:	d0a7b315 	stw	r2,-24884(gp)
	byte = (unsigned char *) malloc(sizeof(unsigned char));
  2810ac:	01000044 	movi	r4,1
  2810b0:	02815c80 	call	2815c8 <malloc>
  2810b4:	d0a7b015 	stw	r2,-24896(gp)
	ascii = (char *) malloc(sizeof(char));
  2810b8:	01000044 	movi	r4,1
  2810bc:	02815c80 	call	2815c8 <malloc>
  2810c0:	d0a7b215 	stw	r2,-24888(gp)

	int status = alt_up_ps2_read_data_byte(ps2_keyboard, byte);
  2810c4:	d127ad17 	ldw	r4,-24908(gp)
  2810c8:	d167b017 	ldw	r5,-24896(gp)
  2810cc:	0280cec0 	call	280cec <alt_up_ps2_read_data_byte>
  2810d0:	e0bffc15 	stw	r2,-16(fp)
//	printf("Byte: %c, Status: %d...\n", *byte, status);

	int num = decode_scancode(ps2_keyboard, kb, buf, ascii);
  2810d4:	d127ad17 	ldw	r4,-24908(gp)
  2810d8:	d167b117 	ldw	r5,-24892(gp)
  2810dc:	d1a7b317 	ldw	r6,-24884(gp)
  2810e0:	d1e7b217 	ldw	r7,-24888(gp)
  2810e4:	02805400 	call	280540 <decode_scancode>
  2810e8:	e0bffb15 	stw	r2,-20(fp)
//	printf("String: %s, Status: %d\n\n", *ascii, num);

//	printf("Char: %c\nHex: %d\n", *byte, *byte);
	unsigned char translated;
	translated = translate_code((int) (*byte));
  2810ec:	d0a7b017 	ldw	r2,-24896(gp)
  2810f0:	10800003 	ldbu	r2,0(r2)
  2810f4:	11003fcc 	andi	r4,r2,255
  2810f8:	02811980 	call	281198 <translate_code>
  2810fc:	e0bffa05 	stb	r2,-24(fp)

	if (translated != '\0') {
  281100:	e0bffa03 	ldbu	r2,-24(fp)
  281104:	1005003a 	cmpeq	r2,r2,zero
  281108:	10000c1e 	bne	r2,zero,28113c <alt_alarm_func+0xbc>
		printf("%c", translated);
  28110c:	e13ffa03 	ldbu	r4,-24(fp)
  281110:	0281d1c0 	call	281d1c <putchar>
		alt_up_char_buffer_draw(char_buf_dev, translated, coordinateX, coordinateY);
  281114:	d127af17 	ldw	r4,-24900(gp)
  281118:	e17ffa03 	ldbu	r5,-24(fp)
  28111c:	d0a7b517 	ldw	r2,-24876(gp)
  281120:	100d883a 	mov	r6,r2
  281124:	d0a7ae17 	ldw	r2,-24904(gp)
  281128:	100f883a 	mov	r7,r2
  28112c:	02861ac0 	call	2861ac <alt_up_char_buffer_draw>
		coordinateY+=10;
  281130:	d0a7ae17 	ldw	r2,-24904(gp)
  281134:	10800284 	addi	r2,r2,10
  281138:	d0a7ae15 	stw	r2,-24904(gp)
	}

	free(buf);
  28113c:	d127b317 	ldw	r4,-24884(gp)
  281140:	02815b40 	call	2815b4 <free>
	free(byte);
  281144:	d127b017 	ldw	r4,-24896(gp)
  281148:	02815b40 	call	2815b4 <free>
	free(ascii);
  28114c:	d127b217 	ldw	r4,-24888(gp)
  281150:	02815b40 	call	2815b4 <free>

	volatile int i;
	for (i = 0; i < 1000000; i++) {
  281154:	e03ffd15 	stw	zero,-12(fp)
  281158:	00000306 	br	281168 <alt_alarm_func+0xe8>
  28115c:	e0bffd17 	ldw	r2,-12(fp)
  281160:	10800044 	addi	r2,r2,1
  281164:	e0bffd15 	stw	r2,-12(fp)
  281168:	e0fffd17 	ldw	r3,-12(fp)
  28116c:	008003f4 	movhi	r2,15
  281170:	10908fc4 	addi	r2,r2,16959
  281174:	10fff90e 	bge	r2,r3,28115c <alt_alarm_func+0xdc>

	}
	alt_up_ps2_enable_read_interrupt(ps2_keyboard);
  281178:	d127ad17 	ldw	r4,-24908(gp)
  28117c:	0280a3c0 	call	280a3c <alt_up_ps2_enable_read_interrupt>

	return 0;
  281180:	0005883a 	mov	r2,zero
}
  281184:	e037883a 	mov	sp,fp
  281188:	dfc00117 	ldw	ra,4(sp)
  28118c:	df000017 	ldw	fp,0(sp)
  281190:	dec00204 	addi	sp,sp,8
  281194:	f800283a 	ret

00281198 <translate_code>:

static unsigned char translate_code(int code) {
  281198:	defffc04 	addi	sp,sp,-16
  28119c:	df000315 	stw	fp,12(sp)
  2811a0:	df000304 	addi	fp,sp,12
  2811a4:	e13ffd15 	stw	r4,-12(fp)
	switch (code) {
  2811a8:	e0bffd17 	ldw	r2,-12(fp)
  2811ac:	10bffb84 	addi	r2,r2,-18
  2811b0:	e0bfff15 	stw	r2,-4(fp)
  2811b4:	e0ffff17 	ldw	r3,-4(fp)
  2811b8:	18801928 	cmpgeui	r2,r3,100
  2811bc:	1000f71e 	bne	r2,zero,28159c <translate_code+0x404>
  2811c0:	e13fff17 	ldw	r4,-4(fp)
  2811c4:	e13fff17 	ldw	r4,-4(fp)
  2811c8:	2105883a 	add	r2,r4,r4
  2811cc:	1087883a 	add	r3,r2,r2
  2811d0:	00800a34 	movhi	r2,40
  2811d4:	10847904 	addi	r2,r2,4580
  2811d8:	1885883a 	add	r2,r3,r2
  2811dc:	10800017 	ldw	r2,0(r2)
  2811e0:	1000683a 	jmp	r2
  2811e4:	00281584 	movi	zero,-24490
  2811e8:	0028159c 	xori	zero,zero,41046
  2811ec:	0028159c 	xori	zero,zero,41046
  2811f0:	00281374 	movhi	zero,41037
  2811f4:	002814ac 	andhi	zero,zero,41042
  2811f8:	0028159c 	xori	zero,zero,41046
  2811fc:	0028159c 	xori	zero,zero,41046
  281200:	0028159c 	xori	zero,zero,41046
  281204:	00281458 	cmpnei	zero,zero,-24495
  281208:	002813f8 	rdprs	zero,zero,-24497
  28120c:	002813ec 	andhi	zero,zero,41039
  281210:	00281380 	call	28138 <__reset-0x257ec8>
  281214:	002814b8 	rdprs	zero,zero,-24494
  281218:	0028159c 	xori	zero,zero,41046
  28121c:	0028159c 	xori	zero,zero,41046
  281220:	00281470 	cmpltui	zero,zero,41041
  281224:	00281464 	muli	zero,zero,-24495
  281228:	00281404 	movi	zero,-24496
  28122c:	0028138c 	andi	zero,zero,41038
  281230:	002814d0 	cmplti	zero,zero,-24493
  281234:	002814c4 	movi	zero,-24493
  281238:	0028159c 	xori	zero,zero,41046
  28123c:	0028159c 	xori	zero,zero,41046
  281240:	00281554 	movui	zero,41045
  281244:	0028147c 	xorhi	zero,zero,41041
  281248:	00281410 	cmplti	zero,zero,-24496
  28124c:	002813a4 	muli	zero,zero,-24498
  281250:	00281398 	cmpnei	zero,zero,-24498
  281254:	002814dc 	xori	zero,zero,41043
  281258:	0028159c 	xori	zero,zero,41046
  28125c:	0028159c 	xori	zero,zero,41046
  281260:	00281494 	movui	zero,41042
  281264:	00281488 	cmpgei	zero,zero,-24494
  281268:	00281428 	cmpgeui	zero,zero,41040
  28126c:	0028141c 	xori	zero,zero,41040
  281270:	002813b0 	cmpltui	zero,zero,41038
  281274:	002814e8 	cmpgeui	zero,zero,41043
  281278:	0028159c 	xori	zero,zero,41046
  28127c:	0028159c 	xori	zero,zero,41046
  281280:	0028159c 	xori	zero,zero,41046
  281284:	002814a0 	cmpeqi	zero,zero,-24494
  281288:	00281434 	movhi	zero,41040
  28128c:	002813bc 	xorhi	zero,zero,41038
  281290:	002814f4 	movhi	zero,41043
  281294:	00281500 	call	28150 <__reset-0x257eb0>
  281298:	0028159c 	xori	zero,zero,41046
  28129c:	0028159c 	xori	zero,zero,41046
  2812a0:	0028156c 	andhi	zero,zero,41045
  2812a4:	00281440 	call	28144 <__reset-0x257ebc>
  2812a8:	002813c8 	cmpgei	zero,zero,-24497
  2812ac:	002813d4 	movui	zero,41039
  2812b0:	00281518 	cmpnei	zero,zero,-24492
  2812b4:	0028150c 	andi	zero,zero,41044
  2812b8:	0028159c 	xori	zero,zero,41046
  2812bc:	0028159c 	xori	zero,zero,41046
  2812c0:	00281560 	cmpeqi	zero,zero,-24491
  2812c4:	00281578 	rdprs	zero,zero,-24491
  2812c8:	0028144c 	andi	zero,zero,41041
  2812cc:	0028159c 	xori	zero,zero,41046
  2812d0:	002813e0 	cmpeqi	zero,zero,-24497
  2812d4:	0028159c 	xori	zero,zero,41046
  2812d8:	0028159c 	xori	zero,zero,41046
  2812dc:	0028159c 	xori	zero,zero,41046
  2812e0:	0028159c 	xori	zero,zero,41046
  2812e4:	0028159c 	xori	zero,zero,41046
  2812e8:	0028159c 	xori	zero,zero,41046
  2812ec:	0028159c 	xori	zero,zero,41046
  2812f0:	0028159c 	xori	zero,zero,41046
  2812f4:	0028159c 	xori	zero,zero,41046
  2812f8:	0028159c 	xori	zero,zero,41046
  2812fc:	0028159c 	xori	zero,zero,41046
  281300:	0028159c 	xori	zero,zero,41046
  281304:	00281590 	cmplti	zero,zero,-24490
  281308:	0028159c 	xori	zero,zero,41046
  28130c:	0028159c 	xori	zero,zero,41046
  281310:	0028159c 	xori	zero,zero,41046
  281314:	0028159c 	xori	zero,zero,41046
  281318:	0028159c 	xori	zero,zero,41046
  28131c:	0028159c 	xori	zero,zero,41046
  281320:	0028159c 	xori	zero,zero,41046
  281324:	0028159c 	xori	zero,zero,41046
  281328:	0028159c 	xori	zero,zero,41046
  28132c:	0028159c 	xori	zero,zero,41046
  281330:	0028159c 	xori	zero,zero,41046
  281334:	0028159c 	xori	zero,zero,41046
  281338:	0028159c 	xori	zero,zero,41046
  28133c:	0028159c 	xori	zero,zero,41046
  281340:	0028159c 	xori	zero,zero,41046
  281344:	0028159c 	xori	zero,zero,41046
  281348:	00281530 	cmpltui	zero,zero,41044
  28134c:	0028159c 	xori	zero,zero,41046
  281350:	0028159c 	xori	zero,zero,41046
  281354:	0028159c 	xori	zero,zero,41046
  281358:	0028159c 	xori	zero,zero,41046
  28135c:	0028159c 	xori	zero,zero,41046
  281360:	0028159c 	xori	zero,zero,41046
  281364:	0028153c 	xorhi	zero,zero,41044
  281368:	0028159c 	xori	zero,zero,41046
  28136c:	00281548 	cmpgei	zero,zero,-24491
  281370:	00281524 	muli	zero,zero,-24492
	case 21:
		return 'q';
  281374:	00801c44 	movi	r2,113
  281378:	e0bffe15 	stw	r2,-8(fp)
  28137c:	00008806 	br	2815a0 <translate_code+0x408>
		break;
	case 29:
		return 'w';
  281380:	00c01dc4 	movi	r3,119
  281384:	e0fffe15 	stw	r3,-8(fp)
  281388:	00008506 	br	2815a0 <translate_code+0x408>
		break;
	case 36:
		return 'e';
  28138c:	01001944 	movi	r4,101
  281390:	e13ffe15 	stw	r4,-8(fp)
  281394:	00008206 	br	2815a0 <translate_code+0x408>
		break;
	case 45:
		return 'r';
  281398:	00801c84 	movi	r2,114
  28139c:	e0bffe15 	stw	r2,-8(fp)
  2813a0:	00007f06 	br	2815a0 <translate_code+0x408>
		break;
	case 44:
		return 't';
  2813a4:	00c01d04 	movi	r3,116
  2813a8:	e0fffe15 	stw	r3,-8(fp)
  2813ac:	00007c06 	br	2815a0 <translate_code+0x408>
		break;
	case 53:
		return 'y';
  2813b0:	01001e44 	movi	r4,121
  2813b4:	e13ffe15 	stw	r4,-8(fp)
  2813b8:	00007906 	br	2815a0 <translate_code+0x408>
		break;
	case 60:
		return 'u';
  2813bc:	00801d44 	movi	r2,117
  2813c0:	e0bffe15 	stw	r2,-8(fp)
  2813c4:	00007606 	br	2815a0 <translate_code+0x408>
		break;
	case 67:
		return 'i';
  2813c8:	00c01a44 	movi	r3,105
  2813cc:	e0fffe15 	stw	r3,-8(fp)
  2813d0:	00007306 	br	2815a0 <translate_code+0x408>
		break;
	case 68:
		return 'o';
  2813d4:	01001bc4 	movi	r4,111
  2813d8:	e13ffe15 	stw	r4,-8(fp)
  2813dc:	00007006 	br	2815a0 <translate_code+0x408>
		break;
	case 77:
		return 'p';
  2813e0:	00801c04 	movi	r2,112
  2813e4:	e0bffe15 	stw	r2,-8(fp)
  2813e8:	00006d06 	br	2815a0 <translate_code+0x408>
		break;
	case 28:
		return 'a';
  2813ec:	00c01844 	movi	r3,97
  2813f0:	e0fffe15 	stw	r3,-8(fp)
  2813f4:	00006a06 	br	2815a0 <translate_code+0x408>
		break;
	case 27:
		return 's';
  2813f8:	01001cc4 	movi	r4,115
  2813fc:	e13ffe15 	stw	r4,-8(fp)
  281400:	00006706 	br	2815a0 <translate_code+0x408>
		break;
	case 35:
		return 'd';
  281404:	00801904 	movi	r2,100
  281408:	e0bffe15 	stw	r2,-8(fp)
  28140c:	00006406 	br	2815a0 <translate_code+0x408>
		break;
	case 43:
		return 'f';
  281410:	00c01984 	movi	r3,102
  281414:	e0fffe15 	stw	r3,-8(fp)
  281418:	00006106 	br	2815a0 <translate_code+0x408>
		break;
	case 52:
		return 'g';
  28141c:	010019c4 	movi	r4,103
  281420:	e13ffe15 	stw	r4,-8(fp)
  281424:	00005e06 	br	2815a0 <translate_code+0x408>
		break;
	case 51:
		return 'h';
  281428:	00801a04 	movi	r2,104
  28142c:	e0bffe15 	stw	r2,-8(fp)
  281430:	00005b06 	br	2815a0 <translate_code+0x408>
		break;
	case 59:
		return 'j';
  281434:	00c01a84 	movi	r3,106
  281438:	e0fffe15 	stw	r3,-8(fp)
  28143c:	00005806 	br	2815a0 <translate_code+0x408>
		break;
	case 66:
		return 'k';
  281440:	01001ac4 	movi	r4,107
  281444:	e13ffe15 	stw	r4,-8(fp)
  281448:	00005506 	br	2815a0 <translate_code+0x408>
		break;
	case 75:
		return 'l';
  28144c:	00801b04 	movi	r2,108
  281450:	e0bffe15 	stw	r2,-8(fp)
  281454:	00005206 	br	2815a0 <translate_code+0x408>
		break;
	case 26:
		return 'z';
  281458:	00c01e84 	movi	r3,122
  28145c:	e0fffe15 	stw	r3,-8(fp)
  281460:	00004f06 	br	2815a0 <translate_code+0x408>
		break;
	case 34:
		return 'x';
  281464:	01001e04 	movi	r4,120
  281468:	e13ffe15 	stw	r4,-8(fp)
  28146c:	00004c06 	br	2815a0 <translate_code+0x408>
		break;
	case 33:
		return 'c';
  281470:	008018c4 	movi	r2,99
  281474:	e0bffe15 	stw	r2,-8(fp)
  281478:	00004906 	br	2815a0 <translate_code+0x408>
		break;
	case 42:
		return 'v';
  28147c:	00c01d84 	movi	r3,118
  281480:	e0fffe15 	stw	r3,-8(fp)
  281484:	00004606 	br	2815a0 <translate_code+0x408>
		break;
	case 50:
		return 'b';
  281488:	01001884 	movi	r4,98
  28148c:	e13ffe15 	stw	r4,-8(fp)
  281490:	00004306 	br	2815a0 <translate_code+0x408>
		break;
	case 49:
		return 'n';
  281494:	00801b84 	movi	r2,110
  281498:	e0bffe15 	stw	r2,-8(fp)
  28149c:	00004006 	br	2815a0 <translate_code+0x408>
		break;
	case 58:
		return 'm';
  2814a0:	00c01b44 	movi	r3,109
  2814a4:	e0fffe15 	stw	r3,-8(fp)
  2814a8:	00003d06 	br	2815a0 <translate_code+0x408>
		break;
	case 22:
		return '1';
  2814ac:	01000c44 	movi	r4,49
  2814b0:	e13ffe15 	stw	r4,-8(fp)
  2814b4:	00003a06 	br	2815a0 <translate_code+0x408>
		break;
	case 30:
		return '2';
  2814b8:	00800c84 	movi	r2,50
  2814bc:	e0bffe15 	stw	r2,-8(fp)
  2814c0:	00003706 	br	2815a0 <translate_code+0x408>
		break;
	case 38:
		return '3';
  2814c4:	00c00cc4 	movi	r3,51
  2814c8:	e0fffe15 	stw	r3,-8(fp)
  2814cc:	00003406 	br	2815a0 <translate_code+0x408>
		break;
	case 37:
		return '4';
  2814d0:	01000d04 	movi	r4,52
  2814d4:	e13ffe15 	stw	r4,-8(fp)
  2814d8:	00003106 	br	2815a0 <translate_code+0x408>
		break;
	case 46:
		return '5';
  2814dc:	00800d44 	movi	r2,53
  2814e0:	e0bffe15 	stw	r2,-8(fp)
  2814e4:	00002e06 	br	2815a0 <translate_code+0x408>
		break;
	case 54:
		return '6';
  2814e8:	00c00d84 	movi	r3,54
  2814ec:	e0fffe15 	stw	r3,-8(fp)
  2814f0:	00002b06 	br	2815a0 <translate_code+0x408>
		break;
	case 61:
		return '7';
  2814f4:	01000dc4 	movi	r4,55
  2814f8:	e13ffe15 	stw	r4,-8(fp)
  2814fc:	00002806 	br	2815a0 <translate_code+0x408>
		break;
	case 62:
		return '8';
  281500:	00800e04 	movi	r2,56
  281504:	e0bffe15 	stw	r2,-8(fp)
  281508:	00002506 	br	2815a0 <translate_code+0x408>
		break;
	case 70:
		return '9';
  28150c:	00c00e44 	movi	r3,57
  281510:	e0fffe15 	stw	r3,-8(fp)
  281514:	00002206 	br	2815a0 <translate_code+0x408>
		break;
	case 69:
		return '0';
  281518:	01000c04 	movi	r4,48
  28151c:	e13ffe15 	stw	r4,-8(fp)
  281520:	00001f06 	br	2815a0 <translate_code+0x408>
		break;
	case 117:
		return '';
  281524:	00802604 	movi	r2,152
  281528:	e0bffe15 	stw	r2,-8(fp)
  28152c:	00001c06 	br	2815a0 <translate_code+0x408>
		break;
	case 107:
		return '';
  281530:	00c02f44 	movi	r3,189
  281534:	e0fffe15 	stw	r3,-8(fp)
  281538:	00001906 	br	2815a0 <translate_code+0x408>
		break;
	case 114:
		return '';
  28153c:	01002704 	movi	r4,156
  281540:	e13ffe15 	stw	r4,-8(fp)
  281544:	00001606 	br	2815a0 <translate_code+0x408>
		break;
	case 116:
		return '';
  281548:	00802644 	movi	r2,153
  28154c:	e0bffe15 	stw	r2,-8(fp)
  281550:	00001306 	br	2815a0 <translate_code+0x408>
		break;
	case 41:
		return ' ';
  281554:	00c00804 	movi	r3,32
  281558:	e0fffe15 	stw	r3,-8(fp)
  28155c:	00001006 	br	2815a0 <translate_code+0x408>
		break;
	case 73:
		return '.';
  281560:	01000b84 	movi	r4,46
  281564:	e13ffe15 	stw	r4,-8(fp)
  281568:	00000d06 	br	2815a0 <translate_code+0x408>
		break;
	case 65:
		return ',';
  28156c:	00800b04 	movi	r2,44
  281570:	e0bffe15 	stw	r2,-8(fp)
  281574:	00000a06 	br	2815a0 <translate_code+0x408>
		break;
	case 74:
		return '?';
  281578:	00c00fc4 	movi	r3,63
  28157c:	e0fffe15 	stw	r3,-8(fp)
  281580:	00000706 	br	2815a0 <translate_code+0x408>
		break;
	case 18:
		return '!';
  281584:	01000844 	movi	r4,33
  281588:	e13ffe15 	stw	r4,-8(fp)
  28158c:	00000406 	br	2815a0 <translate_code+0x408>
		break;
	case 90:
		return '\n';
  281590:	00800284 	movi	r2,10
  281594:	e0bffe15 	stw	r2,-8(fp)
  281598:	00000106 	br	2815a0 <translate_code+0x408>
		break;
	default:
		return '\0';
  28159c:	e03ffe15 	stw	zero,-8(fp)
  2815a0:	e0bffe17 	ldw	r2,-8(fp)
	}
}
  2815a4:	e037883a 	mov	sp,fp
  2815a8:	df000017 	ldw	fp,0(sp)
  2815ac:	dec00104 	addi	sp,sp,4
  2815b0:	f800283a 	ret

002815b4 <free>:
  2815b4:	00800a74 	movhi	r2,41
  2815b8:	10ab1104 	addi	r2,r2,-21436
  2815bc:	200b883a 	mov	r5,r4
  2815c0:	11000017 	ldw	r4,0(r2)
  2815c4:	02820901 	jmpi	282090 <_free_r>

002815c8 <malloc>:
  2815c8:	00800a74 	movhi	r2,41
  2815cc:	10ab1104 	addi	r2,r2,-21436
  2815d0:	200b883a 	mov	r5,r4
  2815d4:	11000017 	ldw	r4,0(r2)
  2815d8:	02815dc1 	jmpi	2815dc <_malloc_r>

002815dc <_malloc_r>:
  2815dc:	defff604 	addi	sp,sp,-40
  2815e0:	28c002c4 	addi	r3,r5,11
  2815e4:	00800584 	movi	r2,22
  2815e8:	dc800215 	stw	r18,8(sp)
  2815ec:	dfc00915 	stw	ra,36(sp)
  2815f0:	df000815 	stw	fp,32(sp)
  2815f4:	ddc00715 	stw	r23,28(sp)
  2815f8:	dd800615 	stw	r22,24(sp)
  2815fc:	dd400515 	stw	r21,20(sp)
  281600:	dd000415 	stw	r20,16(sp)
  281604:	dcc00315 	stw	r19,12(sp)
  281608:	dc400115 	stw	r17,4(sp)
  28160c:	dc000015 	stw	r16,0(sp)
  281610:	2025883a 	mov	r18,r4
  281614:	10c01236 	bltu	r2,r3,281660 <_malloc_r+0x84>
  281618:	04400404 	movi	r17,16
  28161c:	8940142e 	bgeu	r17,r5,281670 <_malloc_r+0x94>
  281620:	00800304 	movi	r2,12
  281624:	0007883a 	mov	r3,zero
  281628:	90800015 	stw	r2,0(r18)
  28162c:	1805883a 	mov	r2,r3
  281630:	dfc00917 	ldw	ra,36(sp)
  281634:	df000817 	ldw	fp,32(sp)
  281638:	ddc00717 	ldw	r23,28(sp)
  28163c:	dd800617 	ldw	r22,24(sp)
  281640:	dd400517 	ldw	r21,20(sp)
  281644:	dd000417 	ldw	r20,16(sp)
  281648:	dcc00317 	ldw	r19,12(sp)
  28164c:	dc800217 	ldw	r18,8(sp)
  281650:	dc400117 	ldw	r17,4(sp)
  281654:	dc000017 	ldw	r16,0(sp)
  281658:	dec00a04 	addi	sp,sp,40
  28165c:	f800283a 	ret
  281660:	00bffe04 	movi	r2,-8
  281664:	18a2703a 	and	r17,r3,r2
  281668:	883fed16 	blt	r17,zero,281620 <_malloc_r+0x44>
  28166c:	897fec36 	bltu	r17,r5,281620 <_malloc_r+0x44>
  281670:	9009883a 	mov	r4,r18
  281674:	0284bac0 	call	284bac <__malloc_lock>
  281678:	00807dc4 	movi	r2,503
  28167c:	14402b2e 	bgeu	r2,r17,28172c <_malloc_r+0x150>
  281680:	8806d27a 	srli	r3,r17,9
  281684:	18003f1e 	bne	r3,zero,281784 <_malloc_r+0x1a8>
  281688:	880cd0fa 	srli	r6,r17,3
  28168c:	300490fa 	slli	r2,r6,3
  281690:	02c00a74 	movhi	r11,41
  281694:	5ae43204 	addi	r11,r11,-28472
  281698:	12cb883a 	add	r5,r2,r11
  28169c:	2c000317 	ldw	r16,12(r5)
  2816a0:	580f883a 	mov	r7,r11
  2816a4:	2c00041e 	bne	r5,r16,2816b8 <_malloc_r+0xdc>
  2816a8:	00000a06 	br	2816d4 <_malloc_r+0xf8>
  2816ac:	1800860e 	bge	r3,zero,2818c8 <_malloc_r+0x2ec>
  2816b0:	84000317 	ldw	r16,12(r16)
  2816b4:	2c000726 	beq	r5,r16,2816d4 <_malloc_r+0xf8>
  2816b8:	80800117 	ldw	r2,4(r16)
  2816bc:	00ffff04 	movi	r3,-4
  2816c0:	10c8703a 	and	r4,r2,r3
  2816c4:	2447c83a 	sub	r3,r4,r17
  2816c8:	008003c4 	movi	r2,15
  2816cc:	10fff70e 	bge	r2,r3,2816ac <_malloc_r+0xd0>
  2816d0:	31bfffc4 	addi	r6,r6,-1
  2816d4:	32400044 	addi	r9,r6,1
  2816d8:	02800a74 	movhi	r10,41
  2816dc:	52a43404 	addi	r10,r10,-28464
  2816e0:	54000217 	ldw	r16,8(r10)
  2816e4:	8280a026 	beq	r16,r10,281968 <_malloc_r+0x38c>
  2816e8:	80800117 	ldw	r2,4(r16)
  2816ec:	00ffff04 	movi	r3,-4
  2816f0:	10ca703a 	and	r5,r2,r3
  2816f4:	2c4dc83a 	sub	r6,r5,r17
  2816f8:	008003c4 	movi	r2,15
  2816fc:	11808316 	blt	r2,r6,28190c <_malloc_r+0x330>
  281700:	52800315 	stw	r10,12(r10)
  281704:	52800215 	stw	r10,8(r10)
  281708:	30002916 	blt	r6,zero,2817b0 <_malloc_r+0x1d4>
  28170c:	8147883a 	add	r3,r16,r5
  281710:	18800117 	ldw	r2,4(r3)
  281714:	9009883a 	mov	r4,r18
  281718:	10800054 	ori	r2,r2,1
  28171c:	18800115 	stw	r2,4(r3)
  281720:	0284bcc0 	call	284bcc <__malloc_unlock>
  281724:	80c00204 	addi	r3,r16,8
  281728:	003fc006 	br	28162c <_malloc_r+0x50>
  28172c:	02c00a74 	movhi	r11,41
  281730:	5ae43204 	addi	r11,r11,-28472
  281734:	8ac5883a 	add	r2,r17,r11
  281738:	14000317 	ldw	r16,12(r2)
  28173c:	580f883a 	mov	r7,r11
  281740:	8806d0fa 	srli	r3,r17,3
  281744:	14006c26 	beq	r2,r16,2818f8 <_malloc_r+0x31c>
  281748:	80c00117 	ldw	r3,4(r16)
  28174c:	00bfff04 	movi	r2,-4
  281750:	81800317 	ldw	r6,12(r16)
  281754:	1886703a 	and	r3,r3,r2
  281758:	80c7883a 	add	r3,r16,r3
  28175c:	18800117 	ldw	r2,4(r3)
  281760:	81400217 	ldw	r5,8(r16)
  281764:	9009883a 	mov	r4,r18
  281768:	10800054 	ori	r2,r2,1
  28176c:	18800115 	stw	r2,4(r3)
  281770:	31400215 	stw	r5,8(r6)
  281774:	29800315 	stw	r6,12(r5)
  281778:	0284bcc0 	call	284bcc <__malloc_unlock>
  28177c:	80c00204 	addi	r3,r16,8
  281780:	003faa06 	br	28162c <_malloc_r+0x50>
  281784:	00800104 	movi	r2,4
  281788:	10c0052e 	bgeu	r2,r3,2817a0 <_malloc_r+0x1c4>
  28178c:	00800504 	movi	r2,20
  281790:	10c07836 	bltu	r2,r3,281974 <_malloc_r+0x398>
  281794:	198016c4 	addi	r6,r3,91
  281798:	300490fa 	slli	r2,r6,3
  28179c:	003fbc06 	br	281690 <_malloc_r+0xb4>
  2817a0:	8804d1ba 	srli	r2,r17,6
  2817a4:	11800e04 	addi	r6,r2,56
  2817a8:	300490fa 	slli	r2,r6,3
  2817ac:	003fb806 	br	281690 <_malloc_r+0xb4>
  2817b0:	00807fc4 	movi	r2,511
  2817b4:	1140bb36 	bltu	r2,r5,281aa4 <_malloc_r+0x4c8>
  2817b8:	2806d0fa 	srli	r3,r5,3
  2817bc:	573ffe04 	addi	fp,r10,-8
  2817c0:	00800044 	movi	r2,1
  2817c4:	180890fa 	slli	r4,r3,3
  2817c8:	1807d0ba 	srai	r3,r3,2
  2817cc:	e1c00117 	ldw	r7,4(fp)
  2817d0:	5909883a 	add	r4,r11,r4
  2817d4:	21400217 	ldw	r5,8(r4)
  2817d8:	10c4983a 	sll	r2,r2,r3
  2817dc:	81000315 	stw	r4,12(r16)
  2817e0:	81400215 	stw	r5,8(r16)
  2817e4:	388eb03a 	or	r7,r7,r2
  2817e8:	2c000315 	stw	r16,12(r5)
  2817ec:	24000215 	stw	r16,8(r4)
  2817f0:	e1c00115 	stw	r7,4(fp)
  2817f4:	4807883a 	mov	r3,r9
  2817f8:	4800cd16 	blt	r9,zero,281b30 <_malloc_r+0x554>
  2817fc:	1807d0ba 	srai	r3,r3,2
  281800:	00800044 	movi	r2,1
  281804:	10c8983a 	sll	r4,r2,r3
  281808:	39004436 	bltu	r7,r4,28191c <_malloc_r+0x340>
  28180c:	21c4703a 	and	r2,r4,r7
  281810:	10000a1e 	bne	r2,zero,28183c <_malloc_r+0x260>
  281814:	2109883a 	add	r4,r4,r4
  281818:	00bfff04 	movi	r2,-4
  28181c:	4884703a 	and	r2,r9,r2
  281820:	3906703a 	and	r3,r7,r4
  281824:	12400104 	addi	r9,r2,4
  281828:	1800041e 	bne	r3,zero,28183c <_malloc_r+0x260>
  28182c:	2109883a 	add	r4,r4,r4
  281830:	3904703a 	and	r2,r7,r4
  281834:	4a400104 	addi	r9,r9,4
  281838:	103ffc26 	beq	r2,zero,28182c <_malloc_r+0x250>
  28183c:	480490fa 	slli	r2,r9,3
  281840:	4819883a 	mov	r12,r9
  281844:	023fff04 	movi	r8,-4
  281848:	589b883a 	add	r13,r11,r2
  28184c:	6807883a 	mov	r3,r13
  281850:	014003c4 	movi	r5,15
  281854:	1c000317 	ldw	r16,12(r3)
  281858:	1c00041e 	bne	r3,r16,28186c <_malloc_r+0x290>
  28185c:	0000a706 	br	281afc <_malloc_r+0x520>
  281860:	3000ab0e 	bge	r6,zero,281b10 <_malloc_r+0x534>
  281864:	84000317 	ldw	r16,12(r16)
  281868:	1c00a426 	beq	r3,r16,281afc <_malloc_r+0x520>
  28186c:	80800117 	ldw	r2,4(r16)
  281870:	1204703a 	and	r2,r2,r8
  281874:	144dc83a 	sub	r6,r2,r17
  281878:	29bff90e 	bge	r5,r6,281860 <_malloc_r+0x284>
  28187c:	81000317 	ldw	r4,12(r16)
  281880:	80c00217 	ldw	r3,8(r16)
  281884:	89400054 	ori	r5,r17,1
  281888:	8445883a 	add	r2,r16,r17
  28188c:	20c00215 	stw	r3,8(r4)
  281890:	19000315 	stw	r4,12(r3)
  281894:	81400115 	stw	r5,4(r16)
  281898:	1187883a 	add	r3,r2,r6
  28189c:	31000054 	ori	r4,r6,1
  2818a0:	50800315 	stw	r2,12(r10)
  2818a4:	50800215 	stw	r2,8(r10)
  2818a8:	19800015 	stw	r6,0(r3)
  2818ac:	11000115 	stw	r4,4(r2)
  2818b0:	12800215 	stw	r10,8(r2)
  2818b4:	12800315 	stw	r10,12(r2)
  2818b8:	9009883a 	mov	r4,r18
  2818bc:	0284bcc0 	call	284bcc <__malloc_unlock>
  2818c0:	80c00204 	addi	r3,r16,8
  2818c4:	003f5906 	br	28162c <_malloc_r+0x50>
  2818c8:	8109883a 	add	r4,r16,r4
  2818cc:	20800117 	ldw	r2,4(r4)
  2818d0:	80c00217 	ldw	r3,8(r16)
  2818d4:	81400317 	ldw	r5,12(r16)
  2818d8:	10800054 	ori	r2,r2,1
  2818dc:	20800115 	stw	r2,4(r4)
  2818e0:	28c00215 	stw	r3,8(r5)
  2818e4:	19400315 	stw	r5,12(r3)
  2818e8:	9009883a 	mov	r4,r18
  2818ec:	0284bcc0 	call	284bcc <__malloc_unlock>
  2818f0:	80c00204 	addi	r3,r16,8
  2818f4:	003f4d06 	br	28162c <_malloc_r+0x50>
  2818f8:	80800204 	addi	r2,r16,8
  2818fc:	14000317 	ldw	r16,12(r2)
  281900:	143f911e 	bne	r2,r16,281748 <_malloc_r+0x16c>
  281904:	1a400084 	addi	r9,r3,2
  281908:	003f7306 	br	2816d8 <_malloc_r+0xfc>
  28190c:	88c00054 	ori	r3,r17,1
  281910:	8445883a 	add	r2,r16,r17
  281914:	80c00115 	stw	r3,4(r16)
  281918:	003fdf06 	br	281898 <_malloc_r+0x2bc>
  28191c:	e4000217 	ldw	r16,8(fp)
  281920:	00bfff04 	movi	r2,-4
  281924:	80c00117 	ldw	r3,4(r16)
  281928:	802d883a 	mov	r22,r16
  28192c:	18aa703a 	and	r21,r3,r2
  281930:	ac401636 	bltu	r21,r17,28198c <_malloc_r+0x3b0>
  281934:	ac49c83a 	sub	r4,r21,r17
  281938:	008003c4 	movi	r2,15
  28193c:	1100130e 	bge	r2,r4,28198c <_malloc_r+0x3b0>
  281940:	88800054 	ori	r2,r17,1
  281944:	8447883a 	add	r3,r16,r17
  281948:	80800115 	stw	r2,4(r16)
  28194c:	20800054 	ori	r2,r4,1
  281950:	18800115 	stw	r2,4(r3)
  281954:	e0c00215 	stw	r3,8(fp)
  281958:	9009883a 	mov	r4,r18
  28195c:	0284bcc0 	call	284bcc <__malloc_unlock>
  281960:	80c00204 	addi	r3,r16,8
  281964:	003f3106 	br	28162c <_malloc_r+0x50>
  281968:	39c00117 	ldw	r7,4(r7)
  28196c:	573ffe04 	addi	fp,r10,-8
  281970:	003fa006 	br	2817f4 <_malloc_r+0x218>
  281974:	00801504 	movi	r2,84
  281978:	10c06736 	bltu	r2,r3,281b18 <_malloc_r+0x53c>
  28197c:	8804d33a 	srli	r2,r17,12
  281980:	11801b84 	addi	r6,r2,110
  281984:	300490fa 	slli	r2,r6,3
  281988:	003f4106 	br	281690 <_malloc_r+0xb4>
  28198c:	d0a7b617 	ldw	r2,-24872(gp)
  281990:	d0e00217 	ldw	r3,-32760(gp)
  281994:	053fffc4 	movi	r20,-1
  281998:	10800404 	addi	r2,r2,16
  28199c:	88a7883a 	add	r19,r17,r2
  2819a0:	1d000326 	beq	r3,r20,2819b0 <_malloc_r+0x3d4>
  2819a4:	98c3ffc4 	addi	r3,r19,4095
  2819a8:	00bc0004 	movi	r2,-4096
  2819ac:	18a6703a 	and	r19,r3,r2
  2819b0:	9009883a 	mov	r4,r18
  2819b4:	980b883a 	mov	r5,r19
  2819b8:	0281df40 	call	281df4 <_sbrk_r>
  2819bc:	1009883a 	mov	r4,r2
  2819c0:	15000426 	beq	r2,r20,2819d4 <_malloc_r+0x3f8>
  2819c4:	854b883a 	add	r5,r16,r21
  2819c8:	1029883a 	mov	r20,r2
  2819cc:	11405a2e 	bgeu	r2,r5,281b38 <_malloc_r+0x55c>
  2819d0:	87000c26 	beq	r16,fp,281a04 <_malloc_r+0x428>
  2819d4:	e4000217 	ldw	r16,8(fp)
  2819d8:	80c00117 	ldw	r3,4(r16)
  2819dc:	00bfff04 	movi	r2,-4
  2819e0:	1884703a 	and	r2,r3,r2
  2819e4:	14400336 	bltu	r2,r17,2819f4 <_malloc_r+0x418>
  2819e8:	1449c83a 	sub	r4,r2,r17
  2819ec:	008003c4 	movi	r2,15
  2819f0:	113fd316 	blt	r2,r4,281940 <_malloc_r+0x364>
  2819f4:	9009883a 	mov	r4,r18
  2819f8:	0284bcc0 	call	284bcc <__malloc_unlock>
  2819fc:	0007883a 	mov	r3,zero
  281a00:	003f0a06 	br	28162c <_malloc_r+0x50>
  281a04:	05c00a74 	movhi	r23,41
  281a08:	bdf2ce04 	addi	r23,r23,-13512
  281a0c:	b8800017 	ldw	r2,0(r23)
  281a10:	988d883a 	add	r6,r19,r2
  281a14:	b9800015 	stw	r6,0(r23)
  281a18:	d0e00217 	ldw	r3,-32760(gp)
  281a1c:	00bfffc4 	movi	r2,-1
  281a20:	18808e26 	beq	r3,r2,281c5c <_malloc_r+0x680>
  281a24:	2145c83a 	sub	r2,r4,r5
  281a28:	3085883a 	add	r2,r6,r2
  281a2c:	b8800015 	stw	r2,0(r23)
  281a30:	20c001cc 	andi	r3,r4,7
  281a34:	18005f1e 	bne	r3,zero,281bb4 <_malloc_r+0x5d8>
  281a38:	000b883a 	mov	r5,zero
  281a3c:	a4c5883a 	add	r2,r20,r19
  281a40:	1083ffcc 	andi	r2,r2,4095
  281a44:	00c40004 	movi	r3,4096
  281a48:	1887c83a 	sub	r3,r3,r2
  281a4c:	28e7883a 	add	r19,r5,r3
  281a50:	9009883a 	mov	r4,r18
  281a54:	980b883a 	mov	r5,r19
  281a58:	0281df40 	call	281df4 <_sbrk_r>
  281a5c:	1007883a 	mov	r3,r2
  281a60:	00bfffc4 	movi	r2,-1
  281a64:	18807a26 	beq	r3,r2,281c50 <_malloc_r+0x674>
  281a68:	1d05c83a 	sub	r2,r3,r20
  281a6c:	9885883a 	add	r2,r19,r2
  281a70:	10c00054 	ori	r3,r2,1
  281a74:	b8800017 	ldw	r2,0(r23)
  281a78:	a021883a 	mov	r16,r20
  281a7c:	a0c00115 	stw	r3,4(r20)
  281a80:	9885883a 	add	r2,r19,r2
  281a84:	b8800015 	stw	r2,0(r23)
  281a88:	e5000215 	stw	r20,8(fp)
  281a8c:	b7003626 	beq	r22,fp,281b68 <_malloc_r+0x58c>
  281a90:	018003c4 	movi	r6,15
  281a94:	35404b36 	bltu	r6,r21,281bc4 <_malloc_r+0x5e8>
  281a98:	00800044 	movi	r2,1
  281a9c:	a0800115 	stw	r2,4(r20)
  281aa0:	003fcd06 	br	2819d8 <_malloc_r+0x3fc>
  281aa4:	2808d27a 	srli	r4,r5,9
  281aa8:	2000371e 	bne	r4,zero,281b88 <_malloc_r+0x5ac>
  281aac:	2808d0fa 	srli	r4,r5,3
  281ab0:	200690fa 	slli	r3,r4,3
  281ab4:	1ad1883a 	add	r8,r3,r11
  281ab8:	41800217 	ldw	r6,8(r8)
  281abc:	41805b26 	beq	r8,r6,281c2c <_malloc_r+0x650>
  281ac0:	30800117 	ldw	r2,4(r6)
  281ac4:	00ffff04 	movi	r3,-4
  281ac8:	10c4703a 	and	r2,r2,r3
  281acc:	2880022e 	bgeu	r5,r2,281ad8 <_malloc_r+0x4fc>
  281ad0:	31800217 	ldw	r6,8(r6)
  281ad4:	41bffa1e 	bne	r8,r6,281ac0 <_malloc_r+0x4e4>
  281ad8:	32000317 	ldw	r8,12(r6)
  281adc:	39c00117 	ldw	r7,4(r7)
  281ae0:	82000315 	stw	r8,12(r16)
  281ae4:	81800215 	stw	r6,8(r16)
  281ae8:	07000a74 	movhi	fp,41
  281aec:	e7243204 	addi	fp,fp,-28472
  281af0:	34000315 	stw	r16,12(r6)
  281af4:	44000215 	stw	r16,8(r8)
  281af8:	003f3e06 	br	2817f4 <_malloc_r+0x218>
  281afc:	63000044 	addi	r12,r12,1
  281b00:	608000cc 	andi	r2,r12,3
  281b04:	10005d26 	beq	r2,zero,281c7c <_malloc_r+0x6a0>
  281b08:	18c00204 	addi	r3,r3,8
  281b0c:	003f5106 	br	281854 <_malloc_r+0x278>
  281b10:	8089883a 	add	r4,r16,r2
  281b14:	003f6d06 	br	2818cc <_malloc_r+0x2f0>
  281b18:	00805504 	movi	r2,340
  281b1c:	10c02036 	bltu	r2,r3,281ba0 <_malloc_r+0x5c4>
  281b20:	8804d3fa 	srli	r2,r17,15
  281b24:	11801dc4 	addi	r6,r2,119
  281b28:	300490fa 	slli	r2,r6,3
  281b2c:	003ed806 	br	281690 <_malloc_r+0xb4>
  281b30:	48c000c4 	addi	r3,r9,3
  281b34:	003f3106 	br	2817fc <_malloc_r+0x220>
  281b38:	05c00a74 	movhi	r23,41
  281b3c:	bdf2ce04 	addi	r23,r23,-13512
  281b40:	b8800017 	ldw	r2,0(r23)
  281b44:	988d883a 	add	r6,r19,r2
  281b48:	b9800015 	stw	r6,0(r23)
  281b4c:	293fb21e 	bne	r5,r4,281a18 <_malloc_r+0x43c>
  281b50:	2083ffcc 	andi	r2,r4,4095
  281b54:	103fb01e 	bne	r2,zero,281a18 <_malloc_r+0x43c>
  281b58:	e4000217 	ldw	r16,8(fp)
  281b5c:	9d45883a 	add	r2,r19,r21
  281b60:	10800054 	ori	r2,r2,1
  281b64:	80800115 	stw	r2,4(r16)
  281b68:	b8c00017 	ldw	r3,0(r23)
  281b6c:	d0a7b717 	ldw	r2,-24868(gp)
  281b70:	10c0012e 	bgeu	r2,r3,281b78 <_malloc_r+0x59c>
  281b74:	d0e7b715 	stw	r3,-24868(gp)
  281b78:	d0a7b817 	ldw	r2,-24864(gp)
  281b7c:	10ff962e 	bgeu	r2,r3,2819d8 <_malloc_r+0x3fc>
  281b80:	d0e7b815 	stw	r3,-24864(gp)
  281b84:	003f9406 	br	2819d8 <_malloc_r+0x3fc>
  281b88:	00800104 	movi	r2,4
  281b8c:	11001e36 	bltu	r2,r4,281c08 <_malloc_r+0x62c>
  281b90:	2804d1ba 	srli	r2,r5,6
  281b94:	11000e04 	addi	r4,r2,56
  281b98:	200690fa 	slli	r3,r4,3
  281b9c:	003fc506 	br	281ab4 <_malloc_r+0x4d8>
  281ba0:	00815504 	movi	r2,1364
  281ba4:	10c01d2e 	bgeu	r2,r3,281c1c <_malloc_r+0x640>
  281ba8:	01801f84 	movi	r6,126
  281bac:	0080fc04 	movi	r2,1008
  281bb0:	003eb706 	br	281690 <_malloc_r+0xb4>
  281bb4:	00800204 	movi	r2,8
  281bb8:	10cbc83a 	sub	r5,r2,r3
  281bbc:	2169883a 	add	r20,r4,r5
  281bc0:	003f9e06 	br	281a3c <_malloc_r+0x460>
  281bc4:	00bffe04 	movi	r2,-8
  281bc8:	a93ffd04 	addi	r4,r21,-12
  281bcc:	2088703a 	and	r4,r4,r2
  281bd0:	b10b883a 	add	r5,r22,r4
  281bd4:	00c00144 	movi	r3,5
  281bd8:	28c00215 	stw	r3,8(r5)
  281bdc:	28c00115 	stw	r3,4(r5)
  281be0:	b0800117 	ldw	r2,4(r22)
  281be4:	1080004c 	andi	r2,r2,1
  281be8:	2084b03a 	or	r2,r4,r2
  281bec:	b0800115 	stw	r2,4(r22)
  281bf0:	313fdd2e 	bgeu	r6,r4,281b68 <_malloc_r+0x58c>
  281bf4:	b1400204 	addi	r5,r22,8
  281bf8:	9009883a 	mov	r4,r18
  281bfc:	02820900 	call	282090 <_free_r>
  281c00:	e4000217 	ldw	r16,8(fp)
  281c04:	003fd806 	br	281b68 <_malloc_r+0x58c>
  281c08:	00800504 	movi	r2,20
  281c0c:	11001536 	bltu	r2,r4,281c64 <_malloc_r+0x688>
  281c10:	210016c4 	addi	r4,r4,91
  281c14:	200690fa 	slli	r3,r4,3
  281c18:	003fa606 	br	281ab4 <_malloc_r+0x4d8>
  281c1c:	8804d4ba 	srli	r2,r17,18
  281c20:	11801f04 	addi	r6,r2,124
  281c24:	300490fa 	slli	r2,r6,3
  281c28:	003e9906 	br	281690 <_malloc_r+0xb4>
  281c2c:	2009d0ba 	srai	r4,r4,2
  281c30:	01400a74 	movhi	r5,41
  281c34:	29643204 	addi	r5,r5,-28472
  281c38:	00c00044 	movi	r3,1
  281c3c:	28800117 	ldw	r2,4(r5)
  281c40:	1906983a 	sll	r3,r3,r4
  281c44:	10c4b03a 	or	r2,r2,r3
  281c48:	28800115 	stw	r2,4(r5)
  281c4c:	003fa306 	br	281adc <_malloc_r+0x500>
  281c50:	0027883a 	mov	r19,zero
  281c54:	00c00044 	movi	r3,1
  281c58:	003f8606 	br	281a74 <_malloc_r+0x498>
  281c5c:	d1200215 	stw	r4,-32760(gp)
  281c60:	003f7306 	br	281a30 <_malloc_r+0x454>
  281c64:	00801504 	movi	r2,84
  281c68:	11001936 	bltu	r2,r4,281cd0 <_malloc_r+0x6f4>
  281c6c:	2804d33a 	srli	r2,r5,12
  281c70:	11001b84 	addi	r4,r2,110
  281c74:	200690fa 	slli	r3,r4,3
  281c78:	003f8e06 	br	281ab4 <_malloc_r+0x4d8>
  281c7c:	480b883a 	mov	r5,r9
  281c80:	6807883a 	mov	r3,r13
  281c84:	288000cc 	andi	r2,r5,3
  281c88:	18fffe04 	addi	r3,r3,-8
  281c8c:	297fffc4 	addi	r5,r5,-1
  281c90:	10001526 	beq	r2,zero,281ce8 <_malloc_r+0x70c>
  281c94:	18800217 	ldw	r2,8(r3)
  281c98:	10fffa26 	beq	r2,r3,281c84 <_malloc_r+0x6a8>
  281c9c:	2109883a 	add	r4,r4,r4
  281ca0:	393f1e36 	bltu	r7,r4,28191c <_malloc_r+0x340>
  281ca4:	203f1d26 	beq	r4,zero,28191c <_malloc_r+0x340>
  281ca8:	21c4703a 	and	r2,r4,r7
  281cac:	10000226 	beq	r2,zero,281cb8 <_malloc_r+0x6dc>
  281cb0:	6013883a 	mov	r9,r12
  281cb4:	003ee106 	br	28183c <_malloc_r+0x260>
  281cb8:	2109883a 	add	r4,r4,r4
  281cbc:	3904703a 	and	r2,r7,r4
  281cc0:	63000104 	addi	r12,r12,4
  281cc4:	103ffc26 	beq	r2,zero,281cb8 <_malloc_r+0x6dc>
  281cc8:	6013883a 	mov	r9,r12
  281ccc:	003edb06 	br	28183c <_malloc_r+0x260>
  281cd0:	00805504 	movi	r2,340
  281cd4:	11000836 	bltu	r2,r4,281cf8 <_malloc_r+0x71c>
  281cd8:	2804d3fa 	srli	r2,r5,15
  281cdc:	11001dc4 	addi	r4,r2,119
  281ce0:	200690fa 	slli	r3,r4,3
  281ce4:	003f7306 	br	281ab4 <_malloc_r+0x4d8>
  281ce8:	0104303a 	nor	r2,zero,r4
  281cec:	388e703a 	and	r7,r7,r2
  281cf0:	e1c00115 	stw	r7,4(fp)
  281cf4:	003fe906 	br	281c9c <_malloc_r+0x6c0>
  281cf8:	00815504 	movi	r2,1364
  281cfc:	1100032e 	bgeu	r2,r4,281d0c <_malloc_r+0x730>
  281d00:	01001f84 	movi	r4,126
  281d04:	00c0fc04 	movi	r3,1008
  281d08:	003f6a06 	br	281ab4 <_malloc_r+0x4d8>
  281d0c:	2804d4ba 	srli	r2,r5,18
  281d10:	11001f04 	addi	r4,r2,124
  281d14:	200690fa 	slli	r3,r4,3
  281d18:	003f6606 	br	281ab4 <_malloc_r+0x4d8>

00281d1c <putchar>:
  281d1c:	00800a74 	movhi	r2,41
  281d20:	10ab1104 	addi	r2,r2,-21436
  281d24:	11800017 	ldw	r6,0(r2)
  281d28:	200b883a 	mov	r5,r4
  281d2c:	3009883a 	mov	r4,r6
  281d30:	31800217 	ldw	r6,8(r6)
  281d34:	0282ba81 	jmpi	282ba8 <_putc_r>

00281d38 <_putchar_r>:
  281d38:	21800217 	ldw	r6,8(r4)
  281d3c:	0282ba81 	jmpi	282ba8 <_putc_r>

00281d40 <_puts_r>:
  281d40:	defff604 	addi	sp,sp,-40
  281d44:	dc400715 	stw	r17,28(sp)
  281d48:	2023883a 	mov	r17,r4
  281d4c:	2809883a 	mov	r4,r5
  281d50:	dfc00915 	stw	ra,36(sp)
  281d54:	dcc00815 	stw	r19,32(sp)
  281d58:	2827883a 	mov	r19,r5
  281d5c:	0281ef00 	call	281ef0 <strlen>
  281d60:	89400217 	ldw	r5,8(r17)
  281d64:	00c00a74 	movhi	r3,41
  281d68:	18e34b04 	addi	r3,r3,-29396
  281d6c:	01c00044 	movi	r7,1
  281d70:	12000044 	addi	r8,r2,1
  281d74:	d8c00515 	stw	r3,20(sp)
  281d78:	d9c00615 	stw	r7,24(sp)
  281d7c:	d8c00304 	addi	r3,sp,12
  281d80:	01c00084 	movi	r7,2
  281d84:	8809883a 	mov	r4,r17
  281d88:	d80d883a 	mov	r6,sp
  281d8c:	d8c00015 	stw	r3,0(sp)
  281d90:	dcc00315 	stw	r19,12(sp)
  281d94:	da000215 	stw	r8,8(sp)
  281d98:	d9c00115 	stw	r7,4(sp)
  281d9c:	d8800415 	stw	r2,16(sp)
  281da0:	02823a40 	call	2823a4 <__sfvwrite_r>
  281da4:	00ffffc4 	movi	r3,-1
  281da8:	10000626 	beq	r2,zero,281dc4 <_puts_r+0x84>
  281dac:	1805883a 	mov	r2,r3
  281db0:	dfc00917 	ldw	ra,36(sp)
  281db4:	dcc00817 	ldw	r19,32(sp)
  281db8:	dc400717 	ldw	r17,28(sp)
  281dbc:	dec00a04 	addi	sp,sp,40
  281dc0:	f800283a 	ret
  281dc4:	00c00284 	movi	r3,10
  281dc8:	1805883a 	mov	r2,r3
  281dcc:	dfc00917 	ldw	ra,36(sp)
  281dd0:	dcc00817 	ldw	r19,32(sp)
  281dd4:	dc400717 	ldw	r17,28(sp)
  281dd8:	dec00a04 	addi	sp,sp,40
  281ddc:	f800283a 	ret

00281de0 <puts>:
  281de0:	00800a74 	movhi	r2,41
  281de4:	10ab1104 	addi	r2,r2,-21436
  281de8:	200b883a 	mov	r5,r4
  281dec:	11000017 	ldw	r4,0(r2)
  281df0:	0281d401 	jmpi	281d40 <_puts_r>

00281df4 <_sbrk_r>:
  281df4:	defffd04 	addi	sp,sp,-12
  281df8:	dc000015 	stw	r16,0(sp)
  281dfc:	04000a74 	movhi	r16,41
  281e00:	8432c704 	addi	r16,r16,-13540
  281e04:	dc400115 	stw	r17,4(sp)
  281e08:	80000015 	stw	zero,0(r16)
  281e0c:	2023883a 	mov	r17,r4
  281e10:	2809883a 	mov	r4,r5
  281e14:	dfc00215 	stw	ra,8(sp)
  281e18:	02850640 	call	285064 <sbrk>
  281e1c:	1007883a 	mov	r3,r2
  281e20:	00bfffc4 	movi	r2,-1
  281e24:	18800626 	beq	r3,r2,281e40 <_sbrk_r+0x4c>
  281e28:	1805883a 	mov	r2,r3
  281e2c:	dfc00217 	ldw	ra,8(sp)
  281e30:	dc400117 	ldw	r17,4(sp)
  281e34:	dc000017 	ldw	r16,0(sp)
  281e38:	dec00304 	addi	sp,sp,12
  281e3c:	f800283a 	ret
  281e40:	80800017 	ldw	r2,0(r16)
  281e44:	103ff826 	beq	r2,zero,281e28 <_sbrk_r+0x34>
  281e48:	88800015 	stw	r2,0(r17)
  281e4c:	1805883a 	mov	r2,r3
  281e50:	dfc00217 	ldw	ra,8(sp)
  281e54:	dc400117 	ldw	r17,4(sp)
  281e58:	dc000017 	ldw	r16,0(sp)
  281e5c:	dec00304 	addi	sp,sp,12
  281e60:	f800283a 	ret

00281e64 <strcpy>:
  281e64:	2904b03a 	or	r2,r5,r4
  281e68:	108000cc 	andi	r2,r2,3
  281e6c:	10000826 	beq	r2,zero,281e90 <strcpy+0x2c>
  281e70:	2007883a 	mov	r3,r4
  281e74:	28800003 	ldbu	r2,0(r5)
  281e78:	29400044 	addi	r5,r5,1
  281e7c:	18800005 	stb	r2,0(r3)
  281e80:	18c00044 	addi	r3,r3,1
  281e84:	103ffb1e 	bne	r2,zero,281e74 <strcpy+0x10>
  281e88:	2005883a 	mov	r2,r4
  281e8c:	f800283a 	ret
  281e90:	29800017 	ldw	r6,0(r5)
  281e94:	023fbff4 	movhi	r8,65279
  281e98:	423fbfc4 	addi	r8,r8,-257
  281e9c:	02a02074 	movhi	r10,32897
  281ea0:	52a02004 	addi	r10,r10,-32640
  281ea4:	3205883a 	add	r2,r6,r8
  281ea8:	0186303a 	nor	r3,zero,r6
  281eac:	10c4703a 	and	r2,r2,r3
  281eb0:	1284703a 	and	r2,r2,r10
  281eb4:	200f883a 	mov	r7,r4
  281eb8:	10000b1e 	bne	r2,zero,281ee8 <strcpy+0x84>
  281ebc:	4013883a 	mov	r9,r8
  281ec0:	5011883a 	mov	r8,r10
  281ec4:	39800015 	stw	r6,0(r7)
  281ec8:	29400104 	addi	r5,r5,4
  281ecc:	29800017 	ldw	r6,0(r5)
  281ed0:	39c00104 	addi	r7,r7,4
  281ed4:	3245883a 	add	r2,r6,r9
  281ed8:	0186303a 	nor	r3,zero,r6
  281edc:	10c4703a 	and	r2,r2,r3
  281ee0:	1204703a 	and	r2,r2,r8
  281ee4:	103ff726 	beq	r2,zero,281ec4 <strcpy+0x60>
  281ee8:	3807883a 	mov	r3,r7
  281eec:	003fe106 	br	281e74 <strcpy+0x10>

00281ef0 <strlen>:
  281ef0:	208000cc 	andi	r2,r4,3
  281ef4:	2011883a 	mov	r8,r4
  281ef8:	1000161e 	bne	r2,zero,281f54 <strlen+0x64>
  281efc:	20c00017 	ldw	r3,0(r4)
  281f00:	017fbff4 	movhi	r5,65279
  281f04:	297fbfc4 	addi	r5,r5,-257
  281f08:	01e02074 	movhi	r7,32897
  281f0c:	39e02004 	addi	r7,r7,-32640
  281f10:	1945883a 	add	r2,r3,r5
  281f14:	11c4703a 	and	r2,r2,r7
  281f18:	00c6303a 	nor	r3,zero,r3
  281f1c:	1886703a 	and	r3,r3,r2
  281f20:	18000c1e 	bne	r3,zero,281f54 <strlen+0x64>
  281f24:	280d883a 	mov	r6,r5
  281f28:	380b883a 	mov	r5,r7
  281f2c:	21000104 	addi	r4,r4,4
  281f30:	20800017 	ldw	r2,0(r4)
  281f34:	1187883a 	add	r3,r2,r6
  281f38:	1946703a 	and	r3,r3,r5
  281f3c:	0084303a 	nor	r2,zero,r2
  281f40:	10c4703a 	and	r2,r2,r3
  281f44:	103ff926 	beq	r2,zero,281f2c <strlen+0x3c>
  281f48:	20800007 	ldb	r2,0(r4)
  281f4c:	10000326 	beq	r2,zero,281f5c <strlen+0x6c>
  281f50:	21000044 	addi	r4,r4,1
  281f54:	20800007 	ldb	r2,0(r4)
  281f58:	103ffd1e 	bne	r2,zero,281f50 <strlen+0x60>
  281f5c:	2205c83a 	sub	r2,r4,r8
  281f60:	f800283a 	ret

00281f64 <_malloc_trim_r>:
  281f64:	defffb04 	addi	sp,sp,-20
  281f68:	dcc00315 	stw	r19,12(sp)
  281f6c:	04c00a74 	movhi	r19,41
  281f70:	9ce43204 	addi	r19,r19,-28472
  281f74:	dc800215 	stw	r18,8(sp)
  281f78:	dc400115 	stw	r17,4(sp)
  281f7c:	dc000015 	stw	r16,0(sp)
  281f80:	2823883a 	mov	r17,r5
  281f84:	2025883a 	mov	r18,r4
  281f88:	dfc00415 	stw	ra,16(sp)
  281f8c:	0284bac0 	call	284bac <__malloc_lock>
  281f90:	98800217 	ldw	r2,8(r19)
  281f94:	9009883a 	mov	r4,r18
  281f98:	000b883a 	mov	r5,zero
  281f9c:	10c00117 	ldw	r3,4(r2)
  281fa0:	00bfff04 	movi	r2,-4
  281fa4:	18a0703a 	and	r16,r3,r2
  281fa8:	8463c83a 	sub	r17,r16,r17
  281fac:	8c43fbc4 	addi	r17,r17,4079
  281fb0:	8822d33a 	srli	r17,r17,12
  281fb4:	0083ffc4 	movi	r2,4095
  281fb8:	8c7fffc4 	addi	r17,r17,-1
  281fbc:	8822933a 	slli	r17,r17,12
  281fc0:	1440060e 	bge	r2,r17,281fdc <_malloc_trim_r+0x78>
  281fc4:	0281df40 	call	281df4 <_sbrk_r>
  281fc8:	98c00217 	ldw	r3,8(r19)
  281fcc:	9009883a 	mov	r4,r18
  281fd0:	044bc83a 	sub	r5,zero,r17
  281fd4:	80c7883a 	add	r3,r16,r3
  281fd8:	10c00926 	beq	r2,r3,282000 <_malloc_trim_r+0x9c>
  281fdc:	0284bcc0 	call	284bcc <__malloc_unlock>
  281fe0:	0005883a 	mov	r2,zero
  281fe4:	dfc00417 	ldw	ra,16(sp)
  281fe8:	dcc00317 	ldw	r19,12(sp)
  281fec:	dc800217 	ldw	r18,8(sp)
  281ff0:	dc400117 	ldw	r17,4(sp)
  281ff4:	dc000017 	ldw	r16,0(sp)
  281ff8:	dec00504 	addi	sp,sp,20
  281ffc:	f800283a 	ret
  282000:	9009883a 	mov	r4,r18
  282004:	0281df40 	call	281df4 <_sbrk_r>
  282008:	844dc83a 	sub	r6,r16,r17
  28200c:	00ffffc4 	movi	r3,-1
  282010:	9009883a 	mov	r4,r18
  282014:	000b883a 	mov	r5,zero
  282018:	01c00a74 	movhi	r7,41
  28201c:	39f2ce04 	addi	r7,r7,-13512
  282020:	31800054 	ori	r6,r6,1
  282024:	10c00926 	beq	r2,r3,28204c <_malloc_trim_r+0xe8>
  282028:	38800017 	ldw	r2,0(r7)
  28202c:	98c00217 	ldw	r3,8(r19)
  282030:	9009883a 	mov	r4,r18
  282034:	1445c83a 	sub	r2,r2,r17
  282038:	38800015 	stw	r2,0(r7)
  28203c:	19800115 	stw	r6,4(r3)
  282040:	0284bcc0 	call	284bcc <__malloc_unlock>
  282044:	00800044 	movi	r2,1
  282048:	003fe606 	br	281fe4 <_malloc_trim_r+0x80>
  28204c:	0281df40 	call	281df4 <_sbrk_r>
  282050:	99800217 	ldw	r6,8(r19)
  282054:	100f883a 	mov	r7,r2
  282058:	9009883a 	mov	r4,r18
  28205c:	1187c83a 	sub	r3,r2,r6
  282060:	008003c4 	movi	r2,15
  282064:	19400054 	ori	r5,r3,1
  282068:	10ffdc0e 	bge	r2,r3,281fdc <_malloc_trim_r+0x78>
  28206c:	00800a74 	movhi	r2,41
  282070:	10ab1004 	addi	r2,r2,-21440
  282074:	10c00017 	ldw	r3,0(r2)
  282078:	00800a74 	movhi	r2,41
  28207c:	10b2ce04 	addi	r2,r2,-13512
  282080:	31400115 	stw	r5,4(r6)
  282084:	38c7c83a 	sub	r3,r7,r3
  282088:	10c00015 	stw	r3,0(r2)
  28208c:	003fd306 	br	281fdc <_malloc_trim_r+0x78>

00282090 <_free_r>:
  282090:	defffd04 	addi	sp,sp,-12
  282094:	dc400115 	stw	r17,4(sp)
  282098:	dc000015 	stw	r16,0(sp)
  28209c:	dfc00215 	stw	ra,8(sp)
  2820a0:	2821883a 	mov	r16,r5
  2820a4:	2023883a 	mov	r17,r4
  2820a8:	28005a26 	beq	r5,zero,282214 <_free_r+0x184>
  2820ac:	0284bac0 	call	284bac <__malloc_lock>
  2820b0:	823ffe04 	addi	r8,r16,-8
  2820b4:	41400117 	ldw	r5,4(r8)
  2820b8:	00bfff84 	movi	r2,-2
  2820bc:	02800a74 	movhi	r10,41
  2820c0:	52a43204 	addi	r10,r10,-28472
  2820c4:	288e703a 	and	r7,r5,r2
  2820c8:	41cd883a 	add	r6,r8,r7
  2820cc:	30c00117 	ldw	r3,4(r6)
  2820d0:	51000217 	ldw	r4,8(r10)
  2820d4:	00bfff04 	movi	r2,-4
  2820d8:	1892703a 	and	r9,r3,r2
  2820dc:	5017883a 	mov	r11,r10
  2820e0:	31006726 	beq	r6,r4,282280 <_free_r+0x1f0>
  2820e4:	2880004c 	andi	r2,r5,1
  2820e8:	1005003a 	cmpeq	r2,r2,zero
  2820ec:	32400115 	stw	r9,4(r6)
  2820f0:	10001a1e 	bne	r2,zero,28215c <_free_r+0xcc>
  2820f4:	000b883a 	mov	r5,zero
  2820f8:	3247883a 	add	r3,r6,r9
  2820fc:	18800117 	ldw	r2,4(r3)
  282100:	1080004c 	andi	r2,r2,1
  282104:	1000231e 	bne	r2,zero,282194 <_free_r+0x104>
  282108:	280ac03a 	cmpne	r5,r5,zero
  28210c:	3a4f883a 	add	r7,r7,r9
  282110:	2800451e 	bne	r5,zero,282228 <_free_r+0x198>
  282114:	31000217 	ldw	r4,8(r6)
  282118:	00800a74 	movhi	r2,41
  28211c:	10a43404 	addi	r2,r2,-28464
  282120:	20807b26 	beq	r4,r2,282310 <_free_r+0x280>
  282124:	30800317 	ldw	r2,12(r6)
  282128:	3a07883a 	add	r3,r7,r8
  28212c:	19c00015 	stw	r7,0(r3)
  282130:	11000215 	stw	r4,8(r2)
  282134:	20800315 	stw	r2,12(r4)
  282138:	38800054 	ori	r2,r7,1
  28213c:	40800115 	stw	r2,4(r8)
  282140:	28001a26 	beq	r5,zero,2821ac <_free_r+0x11c>
  282144:	8809883a 	mov	r4,r17
  282148:	dfc00217 	ldw	ra,8(sp)
  28214c:	dc400117 	ldw	r17,4(sp)
  282150:	dc000017 	ldw	r16,0(sp)
  282154:	dec00304 	addi	sp,sp,12
  282158:	0284bcc1 	jmpi	284bcc <__malloc_unlock>
  28215c:	80bffe17 	ldw	r2,-8(r16)
  282160:	50c00204 	addi	r3,r10,8
  282164:	4091c83a 	sub	r8,r8,r2
  282168:	41000217 	ldw	r4,8(r8)
  28216c:	388f883a 	add	r7,r7,r2
  282170:	20c06126 	beq	r4,r3,2822f8 <_free_r+0x268>
  282174:	40800317 	ldw	r2,12(r8)
  282178:	3247883a 	add	r3,r6,r9
  28217c:	000b883a 	mov	r5,zero
  282180:	11000215 	stw	r4,8(r2)
  282184:	20800315 	stw	r2,12(r4)
  282188:	18800117 	ldw	r2,4(r3)
  28218c:	1080004c 	andi	r2,r2,1
  282190:	103fdd26 	beq	r2,zero,282108 <_free_r+0x78>
  282194:	38800054 	ori	r2,r7,1
  282198:	3a07883a 	add	r3,r7,r8
  28219c:	280ac03a 	cmpne	r5,r5,zero
  2821a0:	40800115 	stw	r2,4(r8)
  2821a4:	19c00015 	stw	r7,0(r3)
  2821a8:	283fe61e 	bne	r5,zero,282144 <_free_r+0xb4>
  2821ac:	00807fc4 	movi	r2,511
  2821b0:	11c01f2e 	bgeu	r2,r7,282230 <_free_r+0x1a0>
  2821b4:	3806d27a 	srli	r3,r7,9
  2821b8:	1800481e 	bne	r3,zero,2822dc <_free_r+0x24c>
  2821bc:	3804d0fa 	srli	r2,r7,3
  2821c0:	100690fa 	slli	r3,r2,3
  2821c4:	1acd883a 	add	r6,r3,r11
  2821c8:	31400217 	ldw	r5,8(r6)
  2821cc:	31405926 	beq	r6,r5,282334 <_free_r+0x2a4>
  2821d0:	28800117 	ldw	r2,4(r5)
  2821d4:	00ffff04 	movi	r3,-4
  2821d8:	10c4703a 	and	r2,r2,r3
  2821dc:	3880022e 	bgeu	r7,r2,2821e8 <_free_r+0x158>
  2821e0:	29400217 	ldw	r5,8(r5)
  2821e4:	317ffa1e 	bne	r6,r5,2821d0 <_free_r+0x140>
  2821e8:	29800317 	ldw	r6,12(r5)
  2821ec:	41800315 	stw	r6,12(r8)
  2821f0:	41400215 	stw	r5,8(r8)
  2821f4:	8809883a 	mov	r4,r17
  2821f8:	2a000315 	stw	r8,12(r5)
  2821fc:	32000215 	stw	r8,8(r6)
  282200:	dfc00217 	ldw	ra,8(sp)
  282204:	dc400117 	ldw	r17,4(sp)
  282208:	dc000017 	ldw	r16,0(sp)
  28220c:	dec00304 	addi	sp,sp,12
  282210:	0284bcc1 	jmpi	284bcc <__malloc_unlock>
  282214:	dfc00217 	ldw	ra,8(sp)
  282218:	dc400117 	ldw	r17,4(sp)
  28221c:	dc000017 	ldw	r16,0(sp)
  282220:	dec00304 	addi	sp,sp,12
  282224:	f800283a 	ret
  282228:	31000217 	ldw	r4,8(r6)
  28222c:	003fbd06 	br	282124 <_free_r+0x94>
  282230:	3806d0fa 	srli	r3,r7,3
  282234:	00800044 	movi	r2,1
  282238:	51400117 	ldw	r5,4(r10)
  28223c:	180890fa 	slli	r4,r3,3
  282240:	1807d0ba 	srai	r3,r3,2
  282244:	22c9883a 	add	r4,r4,r11
  282248:	21800217 	ldw	r6,8(r4)
  28224c:	10c4983a 	sll	r2,r2,r3
  282250:	41000315 	stw	r4,12(r8)
  282254:	41800215 	stw	r6,8(r8)
  282258:	288ab03a 	or	r5,r5,r2
  28225c:	22000215 	stw	r8,8(r4)
  282260:	8809883a 	mov	r4,r17
  282264:	51400115 	stw	r5,4(r10)
  282268:	32000315 	stw	r8,12(r6)
  28226c:	dfc00217 	ldw	ra,8(sp)
  282270:	dc400117 	ldw	r17,4(sp)
  282274:	dc000017 	ldw	r16,0(sp)
  282278:	dec00304 	addi	sp,sp,12
  28227c:	0284bcc1 	jmpi	284bcc <__malloc_unlock>
  282280:	2880004c 	andi	r2,r5,1
  282284:	3a4d883a 	add	r6,r7,r9
  282288:	1000071e 	bne	r2,zero,2822a8 <_free_r+0x218>
  28228c:	80bffe17 	ldw	r2,-8(r16)
  282290:	4091c83a 	sub	r8,r8,r2
  282294:	41000317 	ldw	r4,12(r8)
  282298:	40c00217 	ldw	r3,8(r8)
  28229c:	308d883a 	add	r6,r6,r2
  2822a0:	20c00215 	stw	r3,8(r4)
  2822a4:	19000315 	stw	r4,12(r3)
  2822a8:	00800a74 	movhi	r2,41
  2822ac:	10ab0f04 	addi	r2,r2,-21444
  2822b0:	11000017 	ldw	r4,0(r2)
  2822b4:	30c00054 	ori	r3,r6,1
  2822b8:	52000215 	stw	r8,8(r10)
  2822bc:	40c00115 	stw	r3,4(r8)
  2822c0:	313fa036 	bltu	r6,r4,282144 <_free_r+0xb4>
  2822c4:	00800a74 	movhi	r2,41
  2822c8:	10b2c404 	addi	r2,r2,-13552
  2822cc:	11400017 	ldw	r5,0(r2)
  2822d0:	8809883a 	mov	r4,r17
  2822d4:	0281f640 	call	281f64 <_malloc_trim_r>
  2822d8:	003f9a06 	br	282144 <_free_r+0xb4>
  2822dc:	00800104 	movi	r2,4
  2822e0:	10c0072e 	bgeu	r2,r3,282300 <_free_r+0x270>
  2822e4:	00800504 	movi	r2,20
  2822e8:	10c01936 	bltu	r2,r3,282350 <_free_r+0x2c0>
  2822ec:	188016c4 	addi	r2,r3,91
  2822f0:	100690fa 	slli	r3,r2,3
  2822f4:	003fb306 	br	2821c4 <_free_r+0x134>
  2822f8:	01400044 	movi	r5,1
  2822fc:	003f7e06 	br	2820f8 <_free_r+0x68>
  282300:	3804d1ba 	srli	r2,r7,6
  282304:	10800e04 	addi	r2,r2,56
  282308:	100690fa 	slli	r3,r2,3
  28230c:	003fad06 	br	2821c4 <_free_r+0x134>
  282310:	22000315 	stw	r8,12(r4)
  282314:	22000215 	stw	r8,8(r4)
  282318:	3a05883a 	add	r2,r7,r8
  28231c:	38c00054 	ori	r3,r7,1
  282320:	11c00015 	stw	r7,0(r2)
  282324:	41000215 	stw	r4,8(r8)
  282328:	40c00115 	stw	r3,4(r8)
  28232c:	41000315 	stw	r4,12(r8)
  282330:	003f8406 	br	282144 <_free_r+0xb4>
  282334:	1005d0ba 	srai	r2,r2,2
  282338:	00c00044 	movi	r3,1
  28233c:	51000117 	ldw	r4,4(r10)
  282340:	1886983a 	sll	r3,r3,r2
  282344:	20c8b03a 	or	r4,r4,r3
  282348:	51000115 	stw	r4,4(r10)
  28234c:	003fa706 	br	2821ec <_free_r+0x15c>
  282350:	00801504 	movi	r2,84
  282354:	10c00436 	bltu	r2,r3,282368 <_free_r+0x2d8>
  282358:	3804d33a 	srli	r2,r7,12
  28235c:	10801b84 	addi	r2,r2,110
  282360:	100690fa 	slli	r3,r2,3
  282364:	003f9706 	br	2821c4 <_free_r+0x134>
  282368:	00805504 	movi	r2,340
  28236c:	10c00436 	bltu	r2,r3,282380 <_free_r+0x2f0>
  282370:	3804d3fa 	srli	r2,r7,15
  282374:	10801dc4 	addi	r2,r2,119
  282378:	100690fa 	slli	r3,r2,3
  28237c:	003f9106 	br	2821c4 <_free_r+0x134>
  282380:	00815504 	movi	r2,1364
  282384:	10c0032e 	bgeu	r2,r3,282394 <_free_r+0x304>
  282388:	00801f84 	movi	r2,126
  28238c:	00c0fc04 	movi	r3,1008
  282390:	003f8c06 	br	2821c4 <_free_r+0x134>
  282394:	3804d4ba 	srli	r2,r7,18
  282398:	10801f04 	addi	r2,r2,124
  28239c:	100690fa 	slli	r3,r2,3
  2823a0:	003f8806 	br	2821c4 <_free_r+0x134>

002823a4 <__sfvwrite_r>:
  2823a4:	30800217 	ldw	r2,8(r6)
  2823a8:	defff504 	addi	sp,sp,-44
  2823ac:	df000915 	stw	fp,36(sp)
  2823b0:	dd800715 	stw	r22,28(sp)
  2823b4:	dc800315 	stw	r18,12(sp)
  2823b8:	dfc00a15 	stw	ra,40(sp)
  2823bc:	ddc00815 	stw	r23,32(sp)
  2823c0:	dd400615 	stw	r21,24(sp)
  2823c4:	dd000515 	stw	r20,20(sp)
  2823c8:	dcc00415 	stw	r19,16(sp)
  2823cc:	dc400215 	stw	r17,8(sp)
  2823d0:	dc000115 	stw	r16,4(sp)
  2823d4:	302d883a 	mov	r22,r6
  2823d8:	2039883a 	mov	fp,r4
  2823dc:	2825883a 	mov	r18,r5
  2823e0:	10001c26 	beq	r2,zero,282454 <__sfvwrite_r+0xb0>
  2823e4:	29c0030b 	ldhu	r7,12(r5)
  2823e8:	3880020c 	andi	r2,r7,8
  2823ec:	10002726 	beq	r2,zero,28248c <__sfvwrite_r+0xe8>
  2823f0:	28800417 	ldw	r2,16(r5)
  2823f4:	10002526 	beq	r2,zero,28248c <__sfvwrite_r+0xe8>
  2823f8:	3880008c 	andi	r2,r7,2
  2823fc:	b5400017 	ldw	r21,0(r22)
  282400:	10002826 	beq	r2,zero,2824a4 <__sfvwrite_r+0x100>
  282404:	0021883a 	mov	r16,zero
  282408:	0023883a 	mov	r17,zero
  28240c:	880d883a 	mov	r6,r17
  282410:	e009883a 	mov	r4,fp
  282414:	00810004 	movi	r2,1024
  282418:	80006e26 	beq	r16,zero,2825d4 <__sfvwrite_r+0x230>
  28241c:	800f883a 	mov	r7,r16
  282420:	91400717 	ldw	r5,28(r18)
  282424:	1400012e 	bgeu	r2,r16,28242c <__sfvwrite_r+0x88>
  282428:	100f883a 	mov	r7,r2
  28242c:	90c00917 	ldw	r3,36(r18)
  282430:	183ee83a 	callr	r3
  282434:	1007883a 	mov	r3,r2
  282438:	80a1c83a 	sub	r16,r16,r2
  28243c:	88a3883a 	add	r17,r17,r2
  282440:	00806d0e 	bge	zero,r2,2825f8 <__sfvwrite_r+0x254>
  282444:	b0800217 	ldw	r2,8(r22)
  282448:	10c5c83a 	sub	r2,r2,r3
  28244c:	b0800215 	stw	r2,8(r22)
  282450:	103fee1e 	bne	r2,zero,28240c <__sfvwrite_r+0x68>
  282454:	0009883a 	mov	r4,zero
  282458:	2005883a 	mov	r2,r4
  28245c:	dfc00a17 	ldw	ra,40(sp)
  282460:	df000917 	ldw	fp,36(sp)
  282464:	ddc00817 	ldw	r23,32(sp)
  282468:	dd800717 	ldw	r22,28(sp)
  28246c:	dd400617 	ldw	r21,24(sp)
  282470:	dd000517 	ldw	r20,20(sp)
  282474:	dcc00417 	ldw	r19,16(sp)
  282478:	dc800317 	ldw	r18,12(sp)
  28247c:	dc400217 	ldw	r17,8(sp)
  282480:	dc000117 	ldw	r16,4(sp)
  282484:	dec00b04 	addi	sp,sp,44
  282488:	f800283a 	ret
  28248c:	02833d00 	call	2833d0 <__swsetup_r>
  282490:	1000e41e 	bne	r2,zero,282824 <__sfvwrite_r+0x480>
  282494:	91c0030b 	ldhu	r7,12(r18)
  282498:	b5400017 	ldw	r21,0(r22)
  28249c:	3880008c 	andi	r2,r7,2
  2824a0:	103fd81e 	bne	r2,zero,282404 <__sfvwrite_r+0x60>
  2824a4:	3880004c 	andi	r2,r7,1
  2824a8:	1005003a 	cmpeq	r2,r2,zero
  2824ac:	10005726 	beq	r2,zero,28260c <__sfvwrite_r+0x268>
  2824b0:	0029883a 	mov	r20,zero
  2824b4:	002f883a 	mov	r23,zero
  2824b8:	a0004226 	beq	r20,zero,2825c4 <__sfvwrite_r+0x220>
  2824bc:	3880800c 	andi	r2,r7,512
  2824c0:	94000217 	ldw	r16,8(r18)
  2824c4:	10008b26 	beq	r2,zero,2826f4 <__sfvwrite_r+0x350>
  2824c8:	800d883a 	mov	r6,r16
  2824cc:	a400a536 	bltu	r20,r16,282764 <__sfvwrite_r+0x3c0>
  2824d0:	3881200c 	andi	r2,r7,1152
  2824d4:	10002726 	beq	r2,zero,282574 <__sfvwrite_r+0x1d0>
  2824d8:	90800517 	ldw	r2,20(r18)
  2824dc:	92000417 	ldw	r8,16(r18)
  2824e0:	91400017 	ldw	r5,0(r18)
  2824e4:	1087883a 	add	r3,r2,r2
  2824e8:	1887883a 	add	r3,r3,r2
  2824ec:	1808d7fa 	srli	r4,r3,31
  2824f0:	2a21c83a 	sub	r16,r5,r8
  2824f4:	80800044 	addi	r2,r16,1
  2824f8:	20c9883a 	add	r4,r4,r3
  2824fc:	2027d07a 	srai	r19,r4,1
  282500:	a085883a 	add	r2,r20,r2
  282504:	980d883a 	mov	r6,r19
  282508:	9880022e 	bgeu	r19,r2,282514 <__sfvwrite_r+0x170>
  28250c:	1027883a 	mov	r19,r2
  282510:	100d883a 	mov	r6,r2
  282514:	3881000c 	andi	r2,r7,1024
  282518:	1000b826 	beq	r2,zero,2827fc <__sfvwrite_r+0x458>
  28251c:	300b883a 	mov	r5,r6
  282520:	e009883a 	mov	r4,fp
  282524:	02815dc0 	call	2815dc <_malloc_r>
  282528:	10003126 	beq	r2,zero,2825f0 <__sfvwrite_r+0x24c>
  28252c:	91400417 	ldw	r5,16(r18)
  282530:	1009883a 	mov	r4,r2
  282534:	800d883a 	mov	r6,r16
  282538:	1023883a 	mov	r17,r2
  28253c:	02829240 	call	282924 <memcpy>
  282540:	90c0030b 	ldhu	r3,12(r18)
  282544:	00beffc4 	movi	r2,-1025
  282548:	1886703a 	and	r3,r3,r2
  28254c:	18c02014 	ori	r3,r3,128
  282550:	90c0030d 	sth	r3,12(r18)
  282554:	9c07c83a 	sub	r3,r19,r16
  282558:	8c05883a 	add	r2,r17,r16
  28255c:	a00d883a 	mov	r6,r20
  282560:	a021883a 	mov	r16,r20
  282564:	90800015 	stw	r2,0(r18)
  282568:	90c00215 	stw	r3,8(r18)
  28256c:	94400415 	stw	r17,16(r18)
  282570:	94c00515 	stw	r19,20(r18)
  282574:	91000017 	ldw	r4,0(r18)
  282578:	b80b883a 	mov	r5,r23
  28257c:	a023883a 	mov	r17,r20
  282580:	02829c40 	call	2829c4 <memmove>
  282584:	90c00217 	ldw	r3,8(r18)
  282588:	90800017 	ldw	r2,0(r18)
  28258c:	a027883a 	mov	r19,r20
  282590:	1c07c83a 	sub	r3,r3,r16
  282594:	1405883a 	add	r2,r2,r16
  282598:	90c00215 	stw	r3,8(r18)
  28259c:	a021883a 	mov	r16,r20
  2825a0:	90800015 	stw	r2,0(r18)
  2825a4:	b0800217 	ldw	r2,8(r22)
  2825a8:	1405c83a 	sub	r2,r2,r16
  2825ac:	b0800215 	stw	r2,8(r22)
  2825b0:	103fa826 	beq	r2,zero,282454 <__sfvwrite_r+0xb0>
  2825b4:	a469c83a 	sub	r20,r20,r17
  2825b8:	91c0030b 	ldhu	r7,12(r18)
  2825bc:	bcef883a 	add	r23,r23,r19
  2825c0:	a03fbe1e 	bne	r20,zero,2824bc <__sfvwrite_r+0x118>
  2825c4:	adc00017 	ldw	r23,0(r21)
  2825c8:	ad000117 	ldw	r20,4(r21)
  2825cc:	ad400204 	addi	r21,r21,8
  2825d0:	003fb906 	br	2824b8 <__sfvwrite_r+0x114>
  2825d4:	ac400017 	ldw	r17,0(r21)
  2825d8:	ac000117 	ldw	r16,4(r21)
  2825dc:	ad400204 	addi	r21,r21,8
  2825e0:	003f8a06 	br	28240c <__sfvwrite_r+0x68>
  2825e4:	91400417 	ldw	r5,16(r18)
  2825e8:	e009883a 	mov	r4,fp
  2825ec:	02820900 	call	282090 <_free_r>
  2825f0:	00800304 	movi	r2,12
  2825f4:	e0800015 	stw	r2,0(fp)
  2825f8:	9080030b 	ldhu	r2,12(r18)
  2825fc:	013fffc4 	movi	r4,-1
  282600:	10801014 	ori	r2,r2,64
  282604:	9080030d 	sth	r2,12(r18)
  282608:	003f9306 	br	282458 <__sfvwrite_r+0xb4>
  28260c:	0027883a 	mov	r19,zero
  282610:	002f883a 	mov	r23,zero
  282614:	d8000015 	stw	zero,0(sp)
  282618:	0029883a 	mov	r20,zero
  28261c:	98001e26 	beq	r19,zero,282698 <__sfvwrite_r+0x2f4>
  282620:	d8c00017 	ldw	r3,0(sp)
  282624:	1804c03a 	cmpne	r2,r3,zero
  282628:	10005e26 	beq	r2,zero,2827a4 <__sfvwrite_r+0x400>
  28262c:	9821883a 	mov	r16,r19
  282630:	a4c0012e 	bgeu	r20,r19,282638 <__sfvwrite_r+0x294>
  282634:	a021883a 	mov	r16,r20
  282638:	91000017 	ldw	r4,0(r18)
  28263c:	90800417 	ldw	r2,16(r18)
  282640:	91800217 	ldw	r6,8(r18)
  282644:	91c00517 	ldw	r7,20(r18)
  282648:	1100022e 	bgeu	r2,r4,282654 <__sfvwrite_r+0x2b0>
  28264c:	31e3883a 	add	r17,r6,r7
  282650:	8c001616 	blt	r17,r16,2826ac <__sfvwrite_r+0x308>
  282654:	81c03816 	blt	r16,r7,282738 <__sfvwrite_r+0x394>
  282658:	90c00917 	ldw	r3,36(r18)
  28265c:	91400717 	ldw	r5,28(r18)
  282660:	e009883a 	mov	r4,fp
  282664:	b80d883a 	mov	r6,r23
  282668:	183ee83a 	callr	r3
  28266c:	1023883a 	mov	r17,r2
  282670:	00bfe10e 	bge	zero,r2,2825f8 <__sfvwrite_r+0x254>
  282674:	a469c83a 	sub	r20,r20,r17
  282678:	a0001826 	beq	r20,zero,2826dc <__sfvwrite_r+0x338>
  28267c:	b0800217 	ldw	r2,8(r22)
  282680:	1445c83a 	sub	r2,r2,r17
  282684:	b0800215 	stw	r2,8(r22)
  282688:	103f7226 	beq	r2,zero,282454 <__sfvwrite_r+0xb0>
  28268c:	9c67c83a 	sub	r19,r19,r17
  282690:	bc6f883a 	add	r23,r23,r17
  282694:	983fe21e 	bne	r19,zero,282620 <__sfvwrite_r+0x27c>
  282698:	adc00017 	ldw	r23,0(r21)
  28269c:	acc00117 	ldw	r19,4(r21)
  2826a0:	ad400204 	addi	r21,r21,8
  2826a4:	d8000015 	stw	zero,0(sp)
  2826a8:	003fdc06 	br	28261c <__sfvwrite_r+0x278>
  2826ac:	b80b883a 	mov	r5,r23
  2826b0:	880d883a 	mov	r6,r17
  2826b4:	02829c40 	call	2829c4 <memmove>
  2826b8:	90c00017 	ldw	r3,0(r18)
  2826bc:	e009883a 	mov	r4,fp
  2826c0:	900b883a 	mov	r5,r18
  2826c4:	1c47883a 	add	r3,r3,r17
  2826c8:	90c00015 	stw	r3,0(r18)
  2826cc:	028350c0 	call	28350c <_fflush_r>
  2826d0:	103fc91e 	bne	r2,zero,2825f8 <__sfvwrite_r+0x254>
  2826d4:	a469c83a 	sub	r20,r20,r17
  2826d8:	a03fe81e 	bne	r20,zero,28267c <__sfvwrite_r+0x2d8>
  2826dc:	e009883a 	mov	r4,fp
  2826e0:	900b883a 	mov	r5,r18
  2826e4:	028350c0 	call	28350c <_fflush_r>
  2826e8:	103fc31e 	bne	r2,zero,2825f8 <__sfvwrite_r+0x254>
  2826ec:	d8000015 	stw	zero,0(sp)
  2826f0:	003fe206 	br	28267c <__sfvwrite_r+0x2d8>
  2826f4:	91000017 	ldw	r4,0(r18)
  2826f8:	90800417 	ldw	r2,16(r18)
  2826fc:	1100022e 	bgeu	r2,r4,282708 <__sfvwrite_r+0x364>
  282700:	8023883a 	mov	r17,r16
  282704:	85003136 	bltu	r16,r20,2827cc <__sfvwrite_r+0x428>
  282708:	91c00517 	ldw	r7,20(r18)
  28270c:	a1c01836 	bltu	r20,r7,282770 <__sfvwrite_r+0x3cc>
  282710:	90c00917 	ldw	r3,36(r18)
  282714:	91400717 	ldw	r5,28(r18)
  282718:	e009883a 	mov	r4,fp
  28271c:	b80d883a 	mov	r6,r23
  282720:	183ee83a 	callr	r3
  282724:	1021883a 	mov	r16,r2
  282728:	00bfb30e 	bge	zero,r2,2825f8 <__sfvwrite_r+0x254>
  28272c:	1023883a 	mov	r17,r2
  282730:	1027883a 	mov	r19,r2
  282734:	003f9b06 	br	2825a4 <__sfvwrite_r+0x200>
  282738:	b80b883a 	mov	r5,r23
  28273c:	800d883a 	mov	r6,r16
  282740:	02829c40 	call	2829c4 <memmove>
  282744:	90c00217 	ldw	r3,8(r18)
  282748:	90800017 	ldw	r2,0(r18)
  28274c:	8023883a 	mov	r17,r16
  282750:	1c07c83a 	sub	r3,r3,r16
  282754:	1405883a 	add	r2,r2,r16
  282758:	90c00215 	stw	r3,8(r18)
  28275c:	90800015 	stw	r2,0(r18)
  282760:	003fc406 	br	282674 <__sfvwrite_r+0x2d0>
  282764:	a00d883a 	mov	r6,r20
  282768:	a021883a 	mov	r16,r20
  28276c:	003f8106 	br	282574 <__sfvwrite_r+0x1d0>
  282770:	b80b883a 	mov	r5,r23
  282774:	a00d883a 	mov	r6,r20
  282778:	02829c40 	call	2829c4 <memmove>
  28277c:	90c00217 	ldw	r3,8(r18)
  282780:	90800017 	ldw	r2,0(r18)
  282784:	a021883a 	mov	r16,r20
  282788:	1d07c83a 	sub	r3,r3,r20
  28278c:	1505883a 	add	r2,r2,r20
  282790:	a023883a 	mov	r17,r20
  282794:	a027883a 	mov	r19,r20
  282798:	90c00215 	stw	r3,8(r18)
  28279c:	90800015 	stw	r2,0(r18)
  2827a0:	003f8006 	br	2825a4 <__sfvwrite_r+0x200>
  2827a4:	b809883a 	mov	r4,r23
  2827a8:	01400284 	movi	r5,10
  2827ac:	980d883a 	mov	r6,r19
  2827b0:	02828400 	call	282840 <memchr>
  2827b4:	10001726 	beq	r2,zero,282814 <__sfvwrite_r+0x470>
  2827b8:	15c5c83a 	sub	r2,r2,r23
  2827bc:	15000044 	addi	r20,r2,1
  2827c0:	00800044 	movi	r2,1
  2827c4:	d8800015 	stw	r2,0(sp)
  2827c8:	003f9806 	br	28262c <__sfvwrite_r+0x288>
  2827cc:	b80b883a 	mov	r5,r23
  2827d0:	800d883a 	mov	r6,r16
  2827d4:	02829c40 	call	2829c4 <memmove>
  2827d8:	90c00017 	ldw	r3,0(r18)
  2827dc:	e009883a 	mov	r4,fp
  2827e0:	900b883a 	mov	r5,r18
  2827e4:	1c07883a 	add	r3,r3,r16
  2827e8:	90c00015 	stw	r3,0(r18)
  2827ec:	8027883a 	mov	r19,r16
  2827f0:	028350c0 	call	28350c <_fflush_r>
  2827f4:	103f6b26 	beq	r2,zero,2825a4 <__sfvwrite_r+0x200>
  2827f8:	003f7f06 	br	2825f8 <__sfvwrite_r+0x254>
  2827fc:	400b883a 	mov	r5,r8
  282800:	e009883a 	mov	r4,fp
  282804:	0282c900 	call	282c90 <_realloc_r>
  282808:	103f7626 	beq	r2,zero,2825e4 <__sfvwrite_r+0x240>
  28280c:	1023883a 	mov	r17,r2
  282810:	003f5006 	br	282554 <__sfvwrite_r+0x1b0>
  282814:	00c00044 	movi	r3,1
  282818:	9d000044 	addi	r20,r19,1
  28281c:	d8c00015 	stw	r3,0(sp)
  282820:	003f8206 	br	28262c <__sfvwrite_r+0x288>
  282824:	9080030b 	ldhu	r2,12(r18)
  282828:	00c00244 	movi	r3,9
  28282c:	013fffc4 	movi	r4,-1
  282830:	10801014 	ori	r2,r2,64
  282834:	9080030d 	sth	r2,12(r18)
  282838:	e0c00015 	stw	r3,0(fp)
  28283c:	003f0606 	br	282458 <__sfvwrite_r+0xb4>

00282840 <memchr>:
  282840:	008000c4 	movi	r2,3
  282844:	29403fcc 	andi	r5,r5,255
  282848:	2007883a 	mov	r3,r4
  28284c:	1180022e 	bgeu	r2,r6,282858 <memchr+0x18>
  282850:	2084703a 	and	r2,r4,r2
  282854:	10000b26 	beq	r2,zero,282884 <memchr+0x44>
  282858:	313fffc4 	addi	r4,r6,-1
  28285c:	3000051e 	bne	r6,zero,282874 <memchr+0x34>
  282860:	00002c06 	br	282914 <memchr+0xd4>
  282864:	213fffc4 	addi	r4,r4,-1
  282868:	00bfffc4 	movi	r2,-1
  28286c:	18c00044 	addi	r3,r3,1
  282870:	20802826 	beq	r4,r2,282914 <memchr+0xd4>
  282874:	18800003 	ldbu	r2,0(r3)
  282878:	28bffa1e 	bne	r5,r2,282864 <memchr+0x24>
  28287c:	1805883a 	mov	r2,r3
  282880:	f800283a 	ret
  282884:	0011883a 	mov	r8,zero
  282888:	0007883a 	mov	r3,zero
  28288c:	01c00104 	movi	r7,4
  282890:	4004923a 	slli	r2,r8,8
  282894:	18c00044 	addi	r3,r3,1
  282898:	1151883a 	add	r8,r2,r5
  28289c:	19fffc1e 	bne	r3,r7,282890 <memchr+0x50>
  2828a0:	02bfbff4 	movhi	r10,65279
  2828a4:	52bfbfc4 	addi	r10,r10,-257
  2828a8:	02602074 	movhi	r9,32897
  2828ac:	4a602004 	addi	r9,r9,-32640
  2828b0:	02c000c4 	movi	r11,3
  2828b4:	20800017 	ldw	r2,0(r4)
  2828b8:	31bfff04 	addi	r6,r6,-4
  2828bc:	200f883a 	mov	r7,r4
  2828c0:	1204f03a 	xor	r2,r2,r8
  2828c4:	1287883a 	add	r3,r2,r10
  2828c8:	1a46703a 	and	r3,r3,r9
  2828cc:	0084303a 	nor	r2,zero,r2
  2828d0:	10c4703a 	and	r2,r2,r3
  2828d4:	10000b26 	beq	r2,zero,282904 <memchr+0xc4>
  2828d8:	20800003 	ldbu	r2,0(r4)
  2828dc:	28800f26 	beq	r5,r2,28291c <memchr+0xdc>
  2828e0:	20800043 	ldbu	r2,1(r4)
  2828e4:	21c00044 	addi	r7,r4,1
  2828e8:	28800c26 	beq	r5,r2,28291c <memchr+0xdc>
  2828ec:	20800083 	ldbu	r2,2(r4)
  2828f0:	21c00084 	addi	r7,r4,2
  2828f4:	28800926 	beq	r5,r2,28291c <memchr+0xdc>
  2828f8:	208000c3 	ldbu	r2,3(r4)
  2828fc:	21c000c4 	addi	r7,r4,3
  282900:	28800626 	beq	r5,r2,28291c <memchr+0xdc>
  282904:	21000104 	addi	r4,r4,4
  282908:	59bfea36 	bltu	r11,r6,2828b4 <memchr+0x74>
  28290c:	2007883a 	mov	r3,r4
  282910:	003fd106 	br	282858 <memchr+0x18>
  282914:	0005883a 	mov	r2,zero
  282918:	f800283a 	ret
  28291c:	3805883a 	mov	r2,r7
  282920:	f800283a 	ret

00282924 <memcpy>:
  282924:	01c003c4 	movi	r7,15
  282928:	2007883a 	mov	r3,r4
  28292c:	3980032e 	bgeu	r7,r6,28293c <memcpy+0x18>
  282930:	2904b03a 	or	r2,r5,r4
  282934:	108000cc 	andi	r2,r2,3
  282938:	10000926 	beq	r2,zero,282960 <memcpy+0x3c>
  28293c:	30000626 	beq	r6,zero,282958 <memcpy+0x34>
  282940:	30cd883a 	add	r6,r6,r3
  282944:	28800003 	ldbu	r2,0(r5)
  282948:	29400044 	addi	r5,r5,1
  28294c:	18800005 	stb	r2,0(r3)
  282950:	18c00044 	addi	r3,r3,1
  282954:	30fffb1e 	bne	r6,r3,282944 <memcpy+0x20>
  282958:	2005883a 	mov	r2,r4
  28295c:	f800283a 	ret
  282960:	3811883a 	mov	r8,r7
  282964:	200f883a 	mov	r7,r4
  282968:	28c00017 	ldw	r3,0(r5)
  28296c:	31bffc04 	addi	r6,r6,-16
  282970:	38c00015 	stw	r3,0(r7)
  282974:	28800117 	ldw	r2,4(r5)
  282978:	38800115 	stw	r2,4(r7)
  28297c:	28c00217 	ldw	r3,8(r5)
  282980:	38c00215 	stw	r3,8(r7)
  282984:	28800317 	ldw	r2,12(r5)
  282988:	29400404 	addi	r5,r5,16
  28298c:	38800315 	stw	r2,12(r7)
  282990:	39c00404 	addi	r7,r7,16
  282994:	41bff436 	bltu	r8,r6,282968 <memcpy+0x44>
  282998:	008000c4 	movi	r2,3
  28299c:	1180072e 	bgeu	r2,r6,2829bc <memcpy+0x98>
  2829a0:	1007883a 	mov	r3,r2
  2829a4:	28800017 	ldw	r2,0(r5)
  2829a8:	31bfff04 	addi	r6,r6,-4
  2829ac:	29400104 	addi	r5,r5,4
  2829b0:	38800015 	stw	r2,0(r7)
  2829b4:	39c00104 	addi	r7,r7,4
  2829b8:	19bffa36 	bltu	r3,r6,2829a4 <memcpy+0x80>
  2829bc:	3807883a 	mov	r3,r7
  2829c0:	003fde06 	br	28293c <memcpy+0x18>

002829c4 <memmove>:
  2829c4:	2807883a 	mov	r3,r5
  2829c8:	2011883a 	mov	r8,r4
  2829cc:	29000c2e 	bgeu	r5,r4,282a00 <memmove+0x3c>
  2829d0:	298f883a 	add	r7,r5,r6
  2829d4:	21c00a2e 	bgeu	r4,r7,282a00 <memmove+0x3c>
  2829d8:	30000726 	beq	r6,zero,2829f8 <memmove+0x34>
  2829dc:	2187883a 	add	r3,r4,r6
  2829e0:	198dc83a 	sub	r6,r3,r6
  2829e4:	39ffffc4 	addi	r7,r7,-1
  2829e8:	38800003 	ldbu	r2,0(r7)
  2829ec:	18ffffc4 	addi	r3,r3,-1
  2829f0:	18800005 	stb	r2,0(r3)
  2829f4:	19bffb1e 	bne	r3,r6,2829e4 <memmove+0x20>
  2829f8:	2005883a 	mov	r2,r4
  2829fc:	f800283a 	ret
  282a00:	01c003c4 	movi	r7,15
  282a04:	39800a36 	bltu	r7,r6,282a30 <memmove+0x6c>
  282a08:	303ffb26 	beq	r6,zero,2829f8 <memmove+0x34>
  282a0c:	400f883a 	mov	r7,r8
  282a10:	320d883a 	add	r6,r6,r8
  282a14:	28800003 	ldbu	r2,0(r5)
  282a18:	29400044 	addi	r5,r5,1
  282a1c:	38800005 	stb	r2,0(r7)
  282a20:	39c00044 	addi	r7,r7,1
  282a24:	39bffb1e 	bne	r7,r6,282a14 <memmove+0x50>
  282a28:	2005883a 	mov	r2,r4
  282a2c:	f800283a 	ret
  282a30:	1904b03a 	or	r2,r3,r4
  282a34:	108000cc 	andi	r2,r2,3
  282a38:	103ff31e 	bne	r2,zero,282a08 <memmove+0x44>
  282a3c:	3811883a 	mov	r8,r7
  282a40:	180b883a 	mov	r5,r3
  282a44:	200f883a 	mov	r7,r4
  282a48:	28c00017 	ldw	r3,0(r5)
  282a4c:	31bffc04 	addi	r6,r6,-16
  282a50:	38c00015 	stw	r3,0(r7)
  282a54:	28800117 	ldw	r2,4(r5)
  282a58:	38800115 	stw	r2,4(r7)
  282a5c:	28c00217 	ldw	r3,8(r5)
  282a60:	38c00215 	stw	r3,8(r7)
  282a64:	28800317 	ldw	r2,12(r5)
  282a68:	29400404 	addi	r5,r5,16
  282a6c:	38800315 	stw	r2,12(r7)
  282a70:	39c00404 	addi	r7,r7,16
  282a74:	41bff436 	bltu	r8,r6,282a48 <memmove+0x84>
  282a78:	008000c4 	movi	r2,3
  282a7c:	1180072e 	bgeu	r2,r6,282a9c <memmove+0xd8>
  282a80:	1007883a 	mov	r3,r2
  282a84:	28800017 	ldw	r2,0(r5)
  282a88:	31bfff04 	addi	r6,r6,-4
  282a8c:	29400104 	addi	r5,r5,4
  282a90:	38800015 	stw	r2,0(r7)
  282a94:	39c00104 	addi	r7,r7,4
  282a98:	19bffa36 	bltu	r3,r6,282a84 <memmove+0xc0>
  282a9c:	3811883a 	mov	r8,r7
  282aa0:	003fd906 	br	282a08 <memmove+0x44>

00282aa4 <putc>:
  282aa4:	defffc04 	addi	sp,sp,-16
  282aa8:	dc800215 	stw	r18,8(sp)
  282aac:	04800a74 	movhi	r18,41
  282ab0:	94ab1104 	addi	r18,r18,-21436
  282ab4:	90c00017 	ldw	r3,0(r18)
  282ab8:	dc400115 	stw	r17,4(sp)
  282abc:	dc000015 	stw	r16,0(sp)
  282ac0:	dfc00315 	stw	ra,12(sp)
  282ac4:	2023883a 	mov	r17,r4
  282ac8:	2821883a 	mov	r16,r5
  282acc:	18000226 	beq	r3,zero,282ad8 <putc+0x34>
  282ad0:	18800e17 	ldw	r2,56(r3)
  282ad4:	10001126 	beq	r2,zero,282b1c <putc+0x78>
  282ad8:	80800217 	ldw	r2,8(r16)
  282adc:	10ffffc4 	addi	r3,r2,-1
  282ae0:	80c00215 	stw	r3,8(r16)
  282ae4:	18001316 	blt	r3,zero,282b34 <putc+0x90>
  282ae8:	80800017 	ldw	r2,0(r16)
  282aec:	14400005 	stb	r17,0(r2)
  282af0:	80c00017 	ldw	r3,0(r16)
  282af4:	18800044 	addi	r2,r3,1
  282af8:	18c00003 	ldbu	r3,0(r3)
  282afc:	80800015 	stw	r2,0(r16)
  282b00:	1805883a 	mov	r2,r3
  282b04:	dfc00317 	ldw	ra,12(sp)
  282b08:	dc800217 	ldw	r18,8(sp)
  282b0c:	dc400117 	ldw	r17,4(sp)
  282b10:	dc000017 	ldw	r16,0(sp)
  282b14:	dec00404 	addi	sp,sp,16
  282b18:	f800283a 	ret
  282b1c:	1809883a 	mov	r4,r3
  282b20:	02837a40 	call	2837a4 <__sinit>
  282b24:	80800217 	ldw	r2,8(r16)
  282b28:	10ffffc4 	addi	r3,r2,-1
  282b2c:	80c00215 	stw	r3,8(r16)
  282b30:	183fed0e 	bge	r3,zero,282ae8 <putc+0x44>
  282b34:	80800617 	ldw	r2,24(r16)
  282b38:	18800f16 	blt	r3,r2,282b78 <putc+0xd4>
  282b3c:	80800017 	ldw	r2,0(r16)
  282b40:	14400005 	stb	r17,0(r2)
  282b44:	81000017 	ldw	r4,0(r16)
  282b48:	00800284 	movi	r2,10
  282b4c:	20c00003 	ldbu	r3,0(r4)
  282b50:	18801226 	beq	r3,r2,282b9c <putc+0xf8>
  282b54:	20800044 	addi	r2,r4,1
  282b58:	80800015 	stw	r2,0(r16)
  282b5c:	1805883a 	mov	r2,r3
  282b60:	dfc00317 	ldw	ra,12(sp)
  282b64:	dc800217 	ldw	r18,8(sp)
  282b68:	dc400117 	ldw	r17,4(sp)
  282b6c:	dc000017 	ldw	r16,0(sp)
  282b70:	dec00404 	addi	sp,sp,16
  282b74:	f800283a 	ret
  282b78:	91000017 	ldw	r4,0(r18)
  282b7c:	880b883a 	mov	r5,r17
  282b80:	800d883a 	mov	r6,r16
  282b84:	dfc00317 	ldw	ra,12(sp)
  282b88:	dc800217 	ldw	r18,8(sp)
  282b8c:	dc400117 	ldw	r17,4(sp)
  282b90:	dc000017 	ldw	r16,0(sp)
  282b94:	dec00404 	addi	sp,sp,16
  282b98:	02832841 	jmpi	283284 <__swbuf_r>
  282b9c:	91000017 	ldw	r4,0(r18)
  282ba0:	180b883a 	mov	r5,r3
  282ba4:	003ff606 	br	282b80 <putc+0xdc>

00282ba8 <_putc_r>:
  282ba8:	defffc04 	addi	sp,sp,-16
  282bac:	dc400215 	stw	r17,8(sp)
  282bb0:	dc000115 	stw	r16,4(sp)
  282bb4:	dfc00315 	stw	ra,12(sp)
  282bb8:	2021883a 	mov	r16,r4
  282bbc:	2823883a 	mov	r17,r5
  282bc0:	20000226 	beq	r4,zero,282bcc <_putc_r+0x24>
  282bc4:	20800e17 	ldw	r2,56(r4)
  282bc8:	10001026 	beq	r2,zero,282c0c <_putc_r+0x64>
  282bcc:	30800217 	ldw	r2,8(r6)
  282bd0:	10ffffc4 	addi	r3,r2,-1
  282bd4:	30c00215 	stw	r3,8(r6)
  282bd8:	18001316 	blt	r3,zero,282c28 <_putc_r+0x80>
  282bdc:	30800017 	ldw	r2,0(r6)
  282be0:	14400005 	stb	r17,0(r2)
  282be4:	30c00017 	ldw	r3,0(r6)
  282be8:	18800044 	addi	r2,r3,1
  282bec:	18c00003 	ldbu	r3,0(r3)
  282bf0:	30800015 	stw	r2,0(r6)
  282bf4:	1805883a 	mov	r2,r3
  282bf8:	dfc00317 	ldw	ra,12(sp)
  282bfc:	dc400217 	ldw	r17,8(sp)
  282c00:	dc000117 	ldw	r16,4(sp)
  282c04:	dec00404 	addi	sp,sp,16
  282c08:	f800283a 	ret
  282c0c:	d9800015 	stw	r6,0(sp)
  282c10:	02837a40 	call	2837a4 <__sinit>
  282c14:	d9800017 	ldw	r6,0(sp)
  282c18:	30800217 	ldw	r2,8(r6)
  282c1c:	10ffffc4 	addi	r3,r2,-1
  282c20:	30c00215 	stw	r3,8(r6)
  282c24:	183fed0e 	bge	r3,zero,282bdc <_putc_r+0x34>
  282c28:	30800617 	ldw	r2,24(r6)
  282c2c:	18800e16 	blt	r3,r2,282c68 <_putc_r+0xc0>
  282c30:	30800017 	ldw	r2,0(r6)
  282c34:	14400005 	stb	r17,0(r2)
  282c38:	31000017 	ldw	r4,0(r6)
  282c3c:	00800284 	movi	r2,10
  282c40:	20c00003 	ldbu	r3,0(r4)
  282c44:	18800f26 	beq	r3,r2,282c84 <_putc_r+0xdc>
  282c48:	20800044 	addi	r2,r4,1
  282c4c:	30800015 	stw	r2,0(r6)
  282c50:	1805883a 	mov	r2,r3
  282c54:	dfc00317 	ldw	ra,12(sp)
  282c58:	dc400217 	ldw	r17,8(sp)
  282c5c:	dc000117 	ldw	r16,4(sp)
  282c60:	dec00404 	addi	sp,sp,16
  282c64:	f800283a 	ret
  282c68:	8009883a 	mov	r4,r16
  282c6c:	880b883a 	mov	r5,r17
  282c70:	dfc00317 	ldw	ra,12(sp)
  282c74:	dc400217 	ldw	r17,8(sp)
  282c78:	dc000117 	ldw	r16,4(sp)
  282c7c:	dec00404 	addi	sp,sp,16
  282c80:	02832841 	jmpi	283284 <__swbuf_r>
  282c84:	8009883a 	mov	r4,r16
  282c88:	180b883a 	mov	r5,r3
  282c8c:	003ff806 	br	282c70 <_putc_r+0xc8>

00282c90 <_realloc_r>:
  282c90:	defff404 	addi	sp,sp,-48
  282c94:	dd800815 	stw	r22,32(sp)
  282c98:	dc800415 	stw	r18,16(sp)
  282c9c:	dc400315 	stw	r17,12(sp)
  282ca0:	dfc00b15 	stw	ra,44(sp)
  282ca4:	df000a15 	stw	fp,40(sp)
  282ca8:	ddc00915 	stw	r23,36(sp)
  282cac:	dd400715 	stw	r21,28(sp)
  282cb0:	dd000615 	stw	r20,24(sp)
  282cb4:	dcc00515 	stw	r19,20(sp)
  282cb8:	dc000215 	stw	r16,8(sp)
  282cbc:	2825883a 	mov	r18,r5
  282cc0:	3023883a 	mov	r17,r6
  282cc4:	202d883a 	mov	r22,r4
  282cc8:	2800c926 	beq	r5,zero,282ff0 <_realloc_r+0x360>
  282ccc:	0284bac0 	call	284bac <__malloc_lock>
  282cd0:	943ffe04 	addi	r16,r18,-8
  282cd4:	88c002c4 	addi	r3,r17,11
  282cd8:	00800584 	movi	r2,22
  282cdc:	82000117 	ldw	r8,4(r16)
  282ce0:	10c01b2e 	bgeu	r2,r3,282d50 <_realloc_r+0xc0>
  282ce4:	00bffe04 	movi	r2,-8
  282ce8:	188e703a 	and	r7,r3,r2
  282cec:	3839883a 	mov	fp,r7
  282cf0:	38001a16 	blt	r7,zero,282d5c <_realloc_r+0xcc>
  282cf4:	e4401936 	bltu	fp,r17,282d5c <_realloc_r+0xcc>
  282cf8:	013fff04 	movi	r4,-4
  282cfc:	4126703a 	and	r19,r8,r4
  282d00:	99c02616 	blt	r19,r7,282d9c <_realloc_r+0x10c>
  282d04:	802b883a 	mov	r21,r16
  282d08:	9829883a 	mov	r20,r19
  282d0c:	84000204 	addi	r16,r16,8
  282d10:	a80f883a 	mov	r7,r21
  282d14:	a70dc83a 	sub	r6,r20,fp
  282d18:	008003c4 	movi	r2,15
  282d1c:	1180c136 	bltu	r2,r6,283024 <_realloc_r+0x394>
  282d20:	38800117 	ldw	r2,4(r7)
  282d24:	a549883a 	add	r4,r20,r21
  282d28:	1080004c 	andi	r2,r2,1
  282d2c:	a084b03a 	or	r2,r20,r2
  282d30:	38800115 	stw	r2,4(r7)
  282d34:	20c00117 	ldw	r3,4(r4)
  282d38:	18c00054 	ori	r3,r3,1
  282d3c:	20c00115 	stw	r3,4(r4)
  282d40:	b009883a 	mov	r4,r22
  282d44:	0284bcc0 	call	284bcc <__malloc_unlock>
  282d48:	8023883a 	mov	r17,r16
  282d4c:	00000606 	br	282d68 <_realloc_r+0xd8>
  282d50:	01c00404 	movi	r7,16
  282d54:	3839883a 	mov	fp,r7
  282d58:	e47fe72e 	bgeu	fp,r17,282cf8 <_realloc_r+0x68>
  282d5c:	00800304 	movi	r2,12
  282d60:	0023883a 	mov	r17,zero
  282d64:	b0800015 	stw	r2,0(r22)
  282d68:	8805883a 	mov	r2,r17
  282d6c:	dfc00b17 	ldw	ra,44(sp)
  282d70:	df000a17 	ldw	fp,40(sp)
  282d74:	ddc00917 	ldw	r23,36(sp)
  282d78:	dd800817 	ldw	r22,32(sp)
  282d7c:	dd400717 	ldw	r21,28(sp)
  282d80:	dd000617 	ldw	r20,24(sp)
  282d84:	dcc00517 	ldw	r19,20(sp)
  282d88:	dc800417 	ldw	r18,16(sp)
  282d8c:	dc400317 	ldw	r17,12(sp)
  282d90:	dc000217 	ldw	r16,8(sp)
  282d94:	dec00c04 	addi	sp,sp,48
  282d98:	f800283a 	ret
  282d9c:	00800a74 	movhi	r2,41
  282da0:	10a43204 	addi	r2,r2,-28472
  282da4:	12400217 	ldw	r9,8(r2)
  282da8:	84cd883a 	add	r6,r16,r19
  282dac:	802b883a 	mov	r21,r16
  282db0:	3240b926 	beq	r6,r9,283098 <_realloc_r+0x408>
  282db4:	31400117 	ldw	r5,4(r6)
  282db8:	00bfff84 	movi	r2,-2
  282dbc:	2884703a 	and	r2,r5,r2
  282dc0:	1185883a 	add	r2,r2,r6
  282dc4:	10c00117 	ldw	r3,4(r2)
  282dc8:	18c0004c 	andi	r3,r3,1
  282dcc:	1807003a 	cmpeq	r3,r3,zero
  282dd0:	1800a326 	beq	r3,zero,283060 <_realloc_r+0x3d0>
  282dd4:	2908703a 	and	r4,r5,r4
  282dd8:	9929883a 	add	r20,r19,r4
  282ddc:	a1c0a30e 	bge	r20,r7,28306c <_realloc_r+0x3dc>
  282de0:	4080004c 	andi	r2,r8,1
  282de4:	1000551e 	bne	r2,zero,282f3c <_realloc_r+0x2ac>
  282de8:	80800017 	ldw	r2,0(r16)
  282dec:	80afc83a 	sub	r23,r16,r2
  282df0:	b8c00117 	ldw	r3,4(r23)
  282df4:	00bfff04 	movi	r2,-4
  282df8:	1884703a 	and	r2,r3,r2
  282dfc:	30002e26 	beq	r6,zero,282eb8 <_realloc_r+0x228>
  282e00:	3240b926 	beq	r6,r9,2830e8 <_realloc_r+0x458>
  282e04:	98a9883a 	add	r20,r19,r2
  282e08:	2509883a 	add	r4,r4,r20
  282e0c:	d9000015 	stw	r4,0(sp)
  282e10:	21c02a16 	blt	r4,r7,282ebc <_realloc_r+0x22c>
  282e14:	30800317 	ldw	r2,12(r6)
  282e18:	30c00217 	ldw	r3,8(r6)
  282e1c:	01400904 	movi	r5,36
  282e20:	99bfff04 	addi	r6,r19,-4
  282e24:	18800315 	stw	r2,12(r3)
  282e28:	10c00215 	stw	r3,8(r2)
  282e2c:	b9000317 	ldw	r4,12(r23)
  282e30:	b8800217 	ldw	r2,8(r23)
  282e34:	b82b883a 	mov	r21,r23
  282e38:	bc000204 	addi	r16,r23,8
  282e3c:	20800215 	stw	r2,8(r4)
  282e40:	11000315 	stw	r4,12(r2)
  282e44:	2980e436 	bltu	r5,r6,2831d8 <_realloc_r+0x548>
  282e48:	008004c4 	movi	r2,19
  282e4c:	9009883a 	mov	r4,r18
  282e50:	8011883a 	mov	r8,r16
  282e54:	11800f2e 	bgeu	r2,r6,282e94 <_realloc_r+0x204>
  282e58:	90800017 	ldw	r2,0(r18)
  282e5c:	ba000404 	addi	r8,r23,16
  282e60:	91000204 	addi	r4,r18,8
  282e64:	b8800215 	stw	r2,8(r23)
  282e68:	90c00117 	ldw	r3,4(r18)
  282e6c:	008006c4 	movi	r2,27
  282e70:	b8c00315 	stw	r3,12(r23)
  282e74:	1180072e 	bgeu	r2,r6,282e94 <_realloc_r+0x204>
  282e78:	90c00217 	ldw	r3,8(r18)
  282e7c:	ba000604 	addi	r8,r23,24
  282e80:	91000404 	addi	r4,r18,16
  282e84:	b8c00415 	stw	r3,16(r23)
  282e88:	90800317 	ldw	r2,12(r18)
  282e8c:	b8800515 	stw	r2,20(r23)
  282e90:	3140e726 	beq	r6,r5,283230 <_realloc_r+0x5a0>
  282e94:	20800017 	ldw	r2,0(r4)
  282e98:	dd000017 	ldw	r20,0(sp)
  282e9c:	b80f883a 	mov	r7,r23
  282ea0:	40800015 	stw	r2,0(r8)
  282ea4:	20c00117 	ldw	r3,4(r4)
  282ea8:	40c00115 	stw	r3,4(r8)
  282eac:	20800217 	ldw	r2,8(r4)
  282eb0:	40800215 	stw	r2,8(r8)
  282eb4:	003f9706 	br	282d14 <_realloc_r+0x84>
  282eb8:	98a9883a 	add	r20,r19,r2
  282ebc:	a1c01f16 	blt	r20,r7,282f3c <_realloc_r+0x2ac>
  282ec0:	b8c00317 	ldw	r3,12(r23)
  282ec4:	b8800217 	ldw	r2,8(r23)
  282ec8:	99bfff04 	addi	r6,r19,-4
  282ecc:	01400904 	movi	r5,36
  282ed0:	b82b883a 	mov	r21,r23
  282ed4:	18800215 	stw	r2,8(r3)
  282ed8:	10c00315 	stw	r3,12(r2)
  282edc:	bc000204 	addi	r16,r23,8
  282ee0:	2980c336 	bltu	r5,r6,2831f0 <_realloc_r+0x560>
  282ee4:	008004c4 	movi	r2,19
  282ee8:	9009883a 	mov	r4,r18
  282eec:	8011883a 	mov	r8,r16
  282ef0:	11800f2e 	bgeu	r2,r6,282f30 <_realloc_r+0x2a0>
  282ef4:	90800017 	ldw	r2,0(r18)
  282ef8:	ba000404 	addi	r8,r23,16
  282efc:	91000204 	addi	r4,r18,8
  282f00:	b8800215 	stw	r2,8(r23)
  282f04:	90c00117 	ldw	r3,4(r18)
  282f08:	008006c4 	movi	r2,27
  282f0c:	b8c00315 	stw	r3,12(r23)
  282f10:	1180072e 	bgeu	r2,r6,282f30 <_realloc_r+0x2a0>
  282f14:	90c00217 	ldw	r3,8(r18)
  282f18:	ba000604 	addi	r8,r23,24
  282f1c:	91000404 	addi	r4,r18,16
  282f20:	b8c00415 	stw	r3,16(r23)
  282f24:	90800317 	ldw	r2,12(r18)
  282f28:	b8800515 	stw	r2,20(r23)
  282f2c:	3140c726 	beq	r6,r5,28324c <_realloc_r+0x5bc>
  282f30:	20800017 	ldw	r2,0(r4)
  282f34:	b80f883a 	mov	r7,r23
  282f38:	003fd906 	br	282ea0 <_realloc_r+0x210>
  282f3c:	880b883a 	mov	r5,r17
  282f40:	b009883a 	mov	r4,r22
  282f44:	02815dc0 	call	2815dc <_malloc_r>
  282f48:	1023883a 	mov	r17,r2
  282f4c:	10002526 	beq	r2,zero,282fe4 <_realloc_r+0x354>
  282f50:	80800117 	ldw	r2,4(r16)
  282f54:	00ffff84 	movi	r3,-2
  282f58:	893ffe04 	addi	r4,r17,-8
  282f5c:	10c4703a 	and	r2,r2,r3
  282f60:	8085883a 	add	r2,r16,r2
  282f64:	20809526 	beq	r4,r2,2831bc <_realloc_r+0x52c>
  282f68:	99bfff04 	addi	r6,r19,-4
  282f6c:	01c00904 	movi	r7,36
  282f70:	39804536 	bltu	r7,r6,283088 <_realloc_r+0x3f8>
  282f74:	008004c4 	movi	r2,19
  282f78:	9009883a 	mov	r4,r18
  282f7c:	880b883a 	mov	r5,r17
  282f80:	11800f2e 	bgeu	r2,r6,282fc0 <_realloc_r+0x330>
  282f84:	90800017 	ldw	r2,0(r18)
  282f88:	89400204 	addi	r5,r17,8
  282f8c:	91000204 	addi	r4,r18,8
  282f90:	88800015 	stw	r2,0(r17)
  282f94:	90c00117 	ldw	r3,4(r18)
  282f98:	008006c4 	movi	r2,27
  282f9c:	88c00115 	stw	r3,4(r17)
  282fa0:	1180072e 	bgeu	r2,r6,282fc0 <_realloc_r+0x330>
  282fa4:	90c00217 	ldw	r3,8(r18)
  282fa8:	89400404 	addi	r5,r17,16
  282fac:	91000404 	addi	r4,r18,16
  282fb0:	88c00215 	stw	r3,8(r17)
  282fb4:	90800317 	ldw	r2,12(r18)
  282fb8:	88800315 	stw	r2,12(r17)
  282fbc:	31c09126 	beq	r6,r7,283204 <_realloc_r+0x574>
  282fc0:	20800017 	ldw	r2,0(r4)
  282fc4:	28800015 	stw	r2,0(r5)
  282fc8:	20c00117 	ldw	r3,4(r4)
  282fcc:	28c00115 	stw	r3,4(r5)
  282fd0:	20800217 	ldw	r2,8(r4)
  282fd4:	28800215 	stw	r2,8(r5)
  282fd8:	900b883a 	mov	r5,r18
  282fdc:	b009883a 	mov	r4,r22
  282fe0:	02820900 	call	282090 <_free_r>
  282fe4:	b009883a 	mov	r4,r22
  282fe8:	0284bcc0 	call	284bcc <__malloc_unlock>
  282fec:	003f5e06 	br	282d68 <_realloc_r+0xd8>
  282ff0:	300b883a 	mov	r5,r6
  282ff4:	dfc00b17 	ldw	ra,44(sp)
  282ff8:	df000a17 	ldw	fp,40(sp)
  282ffc:	ddc00917 	ldw	r23,36(sp)
  283000:	dd800817 	ldw	r22,32(sp)
  283004:	dd400717 	ldw	r21,28(sp)
  283008:	dd000617 	ldw	r20,24(sp)
  28300c:	dcc00517 	ldw	r19,20(sp)
  283010:	dc800417 	ldw	r18,16(sp)
  283014:	dc400317 	ldw	r17,12(sp)
  283018:	dc000217 	ldw	r16,8(sp)
  28301c:	dec00c04 	addi	sp,sp,48
  283020:	02815dc1 	jmpi	2815dc <_malloc_r>
  283024:	38800117 	ldw	r2,4(r7)
  283028:	e54b883a 	add	r5,fp,r21
  28302c:	31000054 	ori	r4,r6,1
  283030:	1080004c 	andi	r2,r2,1
  283034:	1704b03a 	or	r2,r2,fp
  283038:	38800115 	stw	r2,4(r7)
  28303c:	29000115 	stw	r4,4(r5)
  283040:	2987883a 	add	r3,r5,r6
  283044:	18800117 	ldw	r2,4(r3)
  283048:	29400204 	addi	r5,r5,8
  28304c:	b009883a 	mov	r4,r22
  283050:	10800054 	ori	r2,r2,1
  283054:	18800115 	stw	r2,4(r3)
  283058:	02820900 	call	282090 <_free_r>
  28305c:	003f3806 	br	282d40 <_realloc_r+0xb0>
  283060:	000d883a 	mov	r6,zero
  283064:	0009883a 	mov	r4,zero
  283068:	003f5d06 	br	282de0 <_realloc_r+0x150>
  28306c:	30c00217 	ldw	r3,8(r6)
  283070:	30800317 	ldw	r2,12(r6)
  283074:	800f883a 	mov	r7,r16
  283078:	84000204 	addi	r16,r16,8
  28307c:	10c00215 	stw	r3,8(r2)
  283080:	18800315 	stw	r2,12(r3)
  283084:	003f2306 	br	282d14 <_realloc_r+0x84>
  283088:	8809883a 	mov	r4,r17
  28308c:	900b883a 	mov	r5,r18
  283090:	02829c40 	call	2829c4 <memmove>
  283094:	003fd006 	br	282fd8 <_realloc_r+0x348>
  283098:	30800117 	ldw	r2,4(r6)
  28309c:	e0c00404 	addi	r3,fp,16
  2830a0:	1108703a 	and	r4,r2,r4
  2830a4:	9905883a 	add	r2,r19,r4
  2830a8:	10ff4d16 	blt	r2,r3,282de0 <_realloc_r+0x150>
  2830ac:	1705c83a 	sub	r2,r2,fp
  2830b0:	870b883a 	add	r5,r16,fp
  2830b4:	10800054 	ori	r2,r2,1
  2830b8:	28800115 	stw	r2,4(r5)
  2830bc:	80c00117 	ldw	r3,4(r16)
  2830c0:	00800a74 	movhi	r2,41
  2830c4:	10a43204 	addi	r2,r2,-28472
  2830c8:	b009883a 	mov	r4,r22
  2830cc:	18c0004c 	andi	r3,r3,1
  2830d0:	e0c6b03a 	or	r3,fp,r3
  2830d4:	11400215 	stw	r5,8(r2)
  2830d8:	80c00115 	stw	r3,4(r16)
  2830dc:	0284bcc0 	call	284bcc <__malloc_unlock>
  2830e0:	84400204 	addi	r17,r16,8
  2830e4:	003f2006 	br	282d68 <_realloc_r+0xd8>
  2830e8:	98a9883a 	add	r20,r19,r2
  2830ec:	2509883a 	add	r4,r4,r20
  2830f0:	e0800404 	addi	r2,fp,16
  2830f4:	d9000115 	stw	r4,4(sp)
  2830f8:	20bf7016 	blt	r4,r2,282ebc <_realloc_r+0x22c>
  2830fc:	b8c00317 	ldw	r3,12(r23)
  283100:	b8800217 	ldw	r2,8(r23)
  283104:	99bfff04 	addi	r6,r19,-4
  283108:	01400904 	movi	r5,36
  28310c:	18800215 	stw	r2,8(r3)
  283110:	10c00315 	stw	r3,12(r2)
  283114:	bc400204 	addi	r17,r23,8
  283118:	29804136 	bltu	r5,r6,283220 <_realloc_r+0x590>
  28311c:	008004c4 	movi	r2,19
  283120:	9009883a 	mov	r4,r18
  283124:	880f883a 	mov	r7,r17
  283128:	11800f2e 	bgeu	r2,r6,283168 <_realloc_r+0x4d8>
  28312c:	90800017 	ldw	r2,0(r18)
  283130:	b9c00404 	addi	r7,r23,16
  283134:	91000204 	addi	r4,r18,8
  283138:	b8800215 	stw	r2,8(r23)
  28313c:	90c00117 	ldw	r3,4(r18)
  283140:	008006c4 	movi	r2,27
  283144:	b8c00315 	stw	r3,12(r23)
  283148:	1180072e 	bgeu	r2,r6,283168 <_realloc_r+0x4d8>
  28314c:	90c00217 	ldw	r3,8(r18)
  283150:	b9c00604 	addi	r7,r23,24
  283154:	91000404 	addi	r4,r18,16
  283158:	b8c00415 	stw	r3,16(r23)
  28315c:	90800317 	ldw	r2,12(r18)
  283160:	b8800515 	stw	r2,20(r23)
  283164:	31404026 	beq	r6,r5,283268 <_realloc_r+0x5d8>
  283168:	20800017 	ldw	r2,0(r4)
  28316c:	38800015 	stw	r2,0(r7)
  283170:	20c00117 	ldw	r3,4(r4)
  283174:	38c00115 	stw	r3,4(r7)
  283178:	20800217 	ldw	r2,8(r4)
  28317c:	38800215 	stw	r2,8(r7)
  283180:	d8c00117 	ldw	r3,4(sp)
  283184:	bf0b883a 	add	r5,r23,fp
  283188:	b009883a 	mov	r4,r22
  28318c:	1f05c83a 	sub	r2,r3,fp
  283190:	10800054 	ori	r2,r2,1
  283194:	28800115 	stw	r2,4(r5)
  283198:	b8c00117 	ldw	r3,4(r23)
  28319c:	00800a74 	movhi	r2,41
  2831a0:	10a43204 	addi	r2,r2,-28472
  2831a4:	11400215 	stw	r5,8(r2)
  2831a8:	18c0004c 	andi	r3,r3,1
  2831ac:	e0c6b03a 	or	r3,fp,r3
  2831b0:	b8c00115 	stw	r3,4(r23)
  2831b4:	0284bcc0 	call	284bcc <__malloc_unlock>
  2831b8:	003eeb06 	br	282d68 <_realloc_r+0xd8>
  2831bc:	20800117 	ldw	r2,4(r4)
  2831c0:	00ffff04 	movi	r3,-4
  2831c4:	800f883a 	mov	r7,r16
  2831c8:	10c4703a 	and	r2,r2,r3
  2831cc:	98a9883a 	add	r20,r19,r2
  2831d0:	84000204 	addi	r16,r16,8
  2831d4:	003ecf06 	br	282d14 <_realloc_r+0x84>
  2831d8:	900b883a 	mov	r5,r18
  2831dc:	8009883a 	mov	r4,r16
  2831e0:	02829c40 	call	2829c4 <memmove>
  2831e4:	dd000017 	ldw	r20,0(sp)
  2831e8:	b80f883a 	mov	r7,r23
  2831ec:	003ec906 	br	282d14 <_realloc_r+0x84>
  2831f0:	900b883a 	mov	r5,r18
  2831f4:	8009883a 	mov	r4,r16
  2831f8:	02829c40 	call	2829c4 <memmove>
  2831fc:	b80f883a 	mov	r7,r23
  283200:	003ec406 	br	282d14 <_realloc_r+0x84>
  283204:	90c00417 	ldw	r3,16(r18)
  283208:	89400604 	addi	r5,r17,24
  28320c:	91000604 	addi	r4,r18,24
  283210:	88c00415 	stw	r3,16(r17)
  283214:	90800517 	ldw	r2,20(r18)
  283218:	88800515 	stw	r2,20(r17)
  28321c:	003f6806 	br	282fc0 <_realloc_r+0x330>
  283220:	900b883a 	mov	r5,r18
  283224:	8809883a 	mov	r4,r17
  283228:	02829c40 	call	2829c4 <memmove>
  28322c:	003fd406 	br	283180 <_realloc_r+0x4f0>
  283230:	90c00417 	ldw	r3,16(r18)
  283234:	91000604 	addi	r4,r18,24
  283238:	ba000804 	addi	r8,r23,32
  28323c:	b8c00615 	stw	r3,24(r23)
  283240:	90800517 	ldw	r2,20(r18)
  283244:	b8800715 	stw	r2,28(r23)
  283248:	003f1206 	br	282e94 <_realloc_r+0x204>
  28324c:	90c00417 	ldw	r3,16(r18)
  283250:	91000604 	addi	r4,r18,24
  283254:	ba000804 	addi	r8,r23,32
  283258:	b8c00615 	stw	r3,24(r23)
  28325c:	90800517 	ldw	r2,20(r18)
  283260:	b8800715 	stw	r2,28(r23)
  283264:	003f3206 	br	282f30 <_realloc_r+0x2a0>
  283268:	90c00417 	ldw	r3,16(r18)
  28326c:	91000604 	addi	r4,r18,24
  283270:	b9c00804 	addi	r7,r23,32
  283274:	b8c00615 	stw	r3,24(r23)
  283278:	90800517 	ldw	r2,20(r18)
  28327c:	b8800715 	stw	r2,28(r23)
  283280:	003fb906 	br	283168 <_realloc_r+0x4d8>

00283284 <__swbuf_r>:
  283284:	defffc04 	addi	sp,sp,-16
  283288:	dc400215 	stw	r17,8(sp)
  28328c:	dc000115 	stw	r16,4(sp)
  283290:	dfc00315 	stw	ra,12(sp)
  283294:	2023883a 	mov	r17,r4
  283298:	2821883a 	mov	r16,r5
  28329c:	20000226 	beq	r4,zero,2832a8 <__swbuf_r+0x24>
  2832a0:	20800e17 	ldw	r2,56(r4)
  2832a4:	10002f26 	beq	r2,zero,283364 <__swbuf_r+0xe0>
  2832a8:	3080030b 	ldhu	r2,12(r6)
  2832ac:	30c00617 	ldw	r3,24(r6)
  2832b0:	1080020c 	andi	r2,r2,8
  2832b4:	30c00215 	stw	r3,8(r6)
  2832b8:	10002226 	beq	r2,zero,283344 <__swbuf_r+0xc0>
  2832bc:	30c00417 	ldw	r3,16(r6)
  2832c0:	18002026 	beq	r3,zero,283344 <__swbuf_r+0xc0>
  2832c4:	31000017 	ldw	r4,0(r6)
  2832c8:	30800517 	ldw	r2,20(r6)
  2832cc:	20c7c83a 	sub	r3,r4,r3
  2832d0:	18802f0e 	bge	r3,r2,283390 <__swbuf_r+0x10c>
  2832d4:	19400044 	addi	r5,r3,1
  2832d8:	30800217 	ldw	r2,8(r6)
  2832dc:	84003fcc 	andi	r16,r16,255
  2832e0:	20c00044 	addi	r3,r4,1
  2832e4:	10bfffc4 	addi	r2,r2,-1
  2832e8:	30800215 	stw	r2,8(r6)
  2832ec:	24000005 	stb	r16,0(r4)
  2832f0:	30800517 	ldw	r2,20(r6)
  2832f4:	30c00015 	stw	r3,0(r6)
  2832f8:	11400c26 	beq	r2,r5,28332c <__swbuf_r+0xa8>
  2832fc:	3080030b 	ldhu	r2,12(r6)
  283300:	1080004c 	andi	r2,r2,1
  283304:	1005003a 	cmpeq	r2,r2,zero
  283308:	10000626 	beq	r2,zero,283324 <__swbuf_r+0xa0>
  28330c:	8005883a 	mov	r2,r16
  283310:	dfc00317 	ldw	ra,12(sp)
  283314:	dc400217 	ldw	r17,8(sp)
  283318:	dc000117 	ldw	r16,4(sp)
  28331c:	dec00404 	addi	sp,sp,16
  283320:	f800283a 	ret
  283324:	00800284 	movi	r2,10
  283328:	80bff81e 	bne	r16,r2,28330c <__swbuf_r+0x88>
  28332c:	8809883a 	mov	r4,r17
  283330:	300b883a 	mov	r5,r6
  283334:	028350c0 	call	28350c <_fflush_r>
  283338:	103ff426 	beq	r2,zero,28330c <__swbuf_r+0x88>
  28333c:	043fffc4 	movi	r16,-1
  283340:	003ff206 	br	28330c <__swbuf_r+0x88>
  283344:	300b883a 	mov	r5,r6
  283348:	8809883a 	mov	r4,r17
  28334c:	d9800015 	stw	r6,0(sp)
  283350:	02833d00 	call	2833d0 <__swsetup_r>
  283354:	d9800017 	ldw	r6,0(sp)
  283358:	1000061e 	bne	r2,zero,283374 <__swbuf_r+0xf0>
  28335c:	30c00417 	ldw	r3,16(r6)
  283360:	003fd806 	br	2832c4 <__swbuf_r+0x40>
  283364:	d9800015 	stw	r6,0(sp)
  283368:	02837a40 	call	2837a4 <__sinit>
  28336c:	d9800017 	ldw	r6,0(sp)
  283370:	003fcd06 	br	2832a8 <__swbuf_r+0x24>
  283374:	3080030b 	ldhu	r2,12(r6)
  283378:	00c00244 	movi	r3,9
  28337c:	043fffc4 	movi	r16,-1
  283380:	10801014 	ori	r2,r2,64
  283384:	3080030d 	sth	r2,12(r6)
  283388:	88c00015 	stw	r3,0(r17)
  28338c:	003fdf06 	br	28330c <__swbuf_r+0x88>
  283390:	300b883a 	mov	r5,r6
  283394:	8809883a 	mov	r4,r17
  283398:	d9800015 	stw	r6,0(sp)
  28339c:	028350c0 	call	28350c <_fflush_r>
  2833a0:	d9800017 	ldw	r6,0(sp)
  2833a4:	103fe51e 	bne	r2,zero,28333c <__swbuf_r+0xb8>
  2833a8:	31000017 	ldw	r4,0(r6)
  2833ac:	01400044 	movi	r5,1
  2833b0:	003fc906 	br	2832d8 <__swbuf_r+0x54>

002833b4 <__swbuf>:
  2833b4:	01800a74 	movhi	r6,41
  2833b8:	31ab1104 	addi	r6,r6,-21436
  2833bc:	2007883a 	mov	r3,r4
  2833c0:	31000017 	ldw	r4,0(r6)
  2833c4:	280d883a 	mov	r6,r5
  2833c8:	180b883a 	mov	r5,r3
  2833cc:	02832841 	jmpi	283284 <__swbuf_r>

002833d0 <__swsetup_r>:
  2833d0:	00800a74 	movhi	r2,41
  2833d4:	10ab1104 	addi	r2,r2,-21436
  2833d8:	10c00017 	ldw	r3,0(r2)
  2833dc:	defffd04 	addi	sp,sp,-12
  2833e0:	dc400115 	stw	r17,4(sp)
  2833e4:	dc000015 	stw	r16,0(sp)
  2833e8:	dfc00215 	stw	ra,8(sp)
  2833ec:	2023883a 	mov	r17,r4
  2833f0:	2821883a 	mov	r16,r5
  2833f4:	18000226 	beq	r3,zero,283400 <__swsetup_r+0x30>
  2833f8:	18800e17 	ldw	r2,56(r3)
  2833fc:	10001f26 	beq	r2,zero,28347c <__swsetup_r+0xac>
  283400:	8100030b 	ldhu	r4,12(r16)
  283404:	2080020c 	andi	r2,r4,8
  283408:	10002826 	beq	r2,zero,2834ac <__swsetup_r+0xdc>
  28340c:	81400417 	ldw	r5,16(r16)
  283410:	28001d26 	beq	r5,zero,283488 <__swsetup_r+0xb8>
  283414:	2080004c 	andi	r2,r4,1
  283418:	1005003a 	cmpeq	r2,r2,zero
  28341c:	10000b26 	beq	r2,zero,28344c <__swsetup_r+0x7c>
  283420:	2080008c 	andi	r2,r4,2
  283424:	10001226 	beq	r2,zero,283470 <__swsetup_r+0xa0>
  283428:	0005883a 	mov	r2,zero
  28342c:	80800215 	stw	r2,8(r16)
  283430:	28000b26 	beq	r5,zero,283460 <__swsetup_r+0x90>
  283434:	0005883a 	mov	r2,zero
  283438:	dfc00217 	ldw	ra,8(sp)
  28343c:	dc400117 	ldw	r17,4(sp)
  283440:	dc000017 	ldw	r16,0(sp)
  283444:	dec00304 	addi	sp,sp,12
  283448:	f800283a 	ret
  28344c:	80800517 	ldw	r2,20(r16)
  283450:	80000215 	stw	zero,8(r16)
  283454:	0085c83a 	sub	r2,zero,r2
  283458:	80800615 	stw	r2,24(r16)
  28345c:	283ff51e 	bne	r5,zero,283434 <__swsetup_r+0x64>
  283460:	2080200c 	andi	r2,r4,128
  283464:	103ff326 	beq	r2,zero,283434 <__swsetup_r+0x64>
  283468:	00bfffc4 	movi	r2,-1
  28346c:	003ff206 	br	283438 <__swsetup_r+0x68>
  283470:	80800517 	ldw	r2,20(r16)
  283474:	80800215 	stw	r2,8(r16)
  283478:	003fed06 	br	283430 <__swsetup_r+0x60>
  28347c:	1809883a 	mov	r4,r3
  283480:	02837a40 	call	2837a4 <__sinit>
  283484:	003fde06 	br	283400 <__swsetup_r+0x30>
  283488:	20c0a00c 	andi	r3,r4,640
  28348c:	00808004 	movi	r2,512
  283490:	18bfe026 	beq	r3,r2,283414 <__swsetup_r+0x44>
  283494:	8809883a 	mov	r4,r17
  283498:	800b883a 	mov	r5,r16
  28349c:	0283b7c0 	call	283b7c <__smakebuf_r>
  2834a0:	8100030b 	ldhu	r4,12(r16)
  2834a4:	81400417 	ldw	r5,16(r16)
  2834a8:	003fda06 	br	283414 <__swsetup_r+0x44>
  2834ac:	2080040c 	andi	r2,r4,16
  2834b0:	103fed26 	beq	r2,zero,283468 <__swsetup_r+0x98>
  2834b4:	2080010c 	andi	r2,r4,4
  2834b8:	10001226 	beq	r2,zero,283504 <__swsetup_r+0x134>
  2834bc:	81400c17 	ldw	r5,48(r16)
  2834c0:	28000526 	beq	r5,zero,2834d8 <__swsetup_r+0x108>
  2834c4:	80801004 	addi	r2,r16,64
  2834c8:	28800226 	beq	r5,r2,2834d4 <__swsetup_r+0x104>
  2834cc:	8809883a 	mov	r4,r17
  2834d0:	02820900 	call	282090 <_free_r>
  2834d4:	80000c15 	stw	zero,48(r16)
  2834d8:	8080030b 	ldhu	r2,12(r16)
  2834dc:	81400417 	ldw	r5,16(r16)
  2834e0:	80000115 	stw	zero,4(r16)
  2834e4:	10bff6cc 	andi	r2,r2,65499
  2834e8:	8080030d 	sth	r2,12(r16)
  2834ec:	81400015 	stw	r5,0(r16)
  2834f0:	8080030b 	ldhu	r2,12(r16)
  2834f4:	10800214 	ori	r2,r2,8
  2834f8:	113fffcc 	andi	r4,r2,65535
  2834fc:	8080030d 	sth	r2,12(r16)
  283500:	003fc306 	br	283410 <__swsetup_r+0x40>
  283504:	81400417 	ldw	r5,16(r16)
  283508:	003ff906 	br	2834f0 <__swsetup_r+0x120>

0028350c <_fflush_r>:
  28350c:	defffb04 	addi	sp,sp,-20
  283510:	dcc00315 	stw	r19,12(sp)
  283514:	dc800215 	stw	r18,8(sp)
  283518:	dfc00415 	stw	ra,16(sp)
  28351c:	dc400115 	stw	r17,4(sp)
  283520:	dc000015 	stw	r16,0(sp)
  283524:	2027883a 	mov	r19,r4
  283528:	2825883a 	mov	r18,r5
  28352c:	20000226 	beq	r4,zero,283538 <_fflush_r+0x2c>
  283530:	20800e17 	ldw	r2,56(r4)
  283534:	10005626 	beq	r2,zero,283690 <_fflush_r+0x184>
  283538:	9100030b 	ldhu	r4,12(r18)
  28353c:	20ffffcc 	andi	r3,r4,65535
  283540:	18e0001c 	xori	r3,r3,32768
  283544:	18e00004 	addi	r3,r3,-32768
  283548:	1880020c 	andi	r2,r3,8
  28354c:	1000261e 	bne	r2,zero,2835e8 <_fflush_r+0xdc>
  283550:	90c00117 	ldw	r3,4(r18)
  283554:	20820014 	ori	r2,r4,2048
  283558:	9080030d 	sth	r2,12(r18)
  28355c:	1009883a 	mov	r4,r2
  283560:	00c0400e 	bge	zero,r3,283664 <_fflush_r+0x158>
  283564:	92000a17 	ldw	r8,40(r18)
  283568:	40004026 	beq	r8,zero,28366c <_fflush_r+0x160>
  28356c:	2084000c 	andi	r2,r4,4096
  283570:	10005326 	beq	r2,zero,2836c0 <_fflush_r+0x1b4>
  283574:	94001417 	ldw	r16,80(r18)
  283578:	9080030b 	ldhu	r2,12(r18)
  28357c:	1080010c 	andi	r2,r2,4
  283580:	1000481e 	bne	r2,zero,2836a4 <_fflush_r+0x198>
  283584:	91400717 	ldw	r5,28(r18)
  283588:	9809883a 	mov	r4,r19
  28358c:	800d883a 	mov	r6,r16
  283590:	000f883a 	mov	r7,zero
  283594:	403ee83a 	callr	r8
  283598:	8080261e 	bne	r16,r2,283634 <_fflush_r+0x128>
  28359c:	9080030b 	ldhu	r2,12(r18)
  2835a0:	91000417 	ldw	r4,16(r18)
  2835a4:	90000115 	stw	zero,4(r18)
  2835a8:	10bdffcc 	andi	r2,r2,63487
  2835ac:	10ffffcc 	andi	r3,r2,65535
  2835b0:	18c4000c 	andi	r3,r3,4096
  2835b4:	9080030d 	sth	r2,12(r18)
  2835b8:	91000015 	stw	r4,0(r18)
  2835bc:	18002b26 	beq	r3,zero,28366c <_fflush_r+0x160>
  2835c0:	0007883a 	mov	r3,zero
  2835c4:	1805883a 	mov	r2,r3
  2835c8:	94001415 	stw	r16,80(r18)
  2835cc:	dfc00417 	ldw	ra,16(sp)
  2835d0:	dcc00317 	ldw	r19,12(sp)
  2835d4:	dc800217 	ldw	r18,8(sp)
  2835d8:	dc400117 	ldw	r17,4(sp)
  2835dc:	dc000017 	ldw	r16,0(sp)
  2835e0:	dec00504 	addi	sp,sp,20
  2835e4:	f800283a 	ret
  2835e8:	94400417 	ldw	r17,16(r18)
  2835ec:	88001f26 	beq	r17,zero,28366c <_fflush_r+0x160>
  2835f0:	90800017 	ldw	r2,0(r18)
  2835f4:	18c000cc 	andi	r3,r3,3
  2835f8:	94400015 	stw	r17,0(r18)
  2835fc:	1461c83a 	sub	r16,r2,r17
  283600:	18002526 	beq	r3,zero,283698 <_fflush_r+0x18c>
  283604:	0005883a 	mov	r2,zero
  283608:	90800215 	stw	r2,8(r18)
  28360c:	0400170e 	bge	zero,r16,28366c <_fflush_r+0x160>
  283610:	90c00917 	ldw	r3,36(r18)
  283614:	91400717 	ldw	r5,28(r18)
  283618:	880d883a 	mov	r6,r17
  28361c:	800f883a 	mov	r7,r16
  283620:	9809883a 	mov	r4,r19
  283624:	183ee83a 	callr	r3
  283628:	88a3883a 	add	r17,r17,r2
  28362c:	80a1c83a 	sub	r16,r16,r2
  283630:	00bff616 	blt	zero,r2,28360c <_fflush_r+0x100>
  283634:	9080030b 	ldhu	r2,12(r18)
  283638:	00ffffc4 	movi	r3,-1
  28363c:	10801014 	ori	r2,r2,64
  283640:	9080030d 	sth	r2,12(r18)
  283644:	1805883a 	mov	r2,r3
  283648:	dfc00417 	ldw	ra,16(sp)
  28364c:	dcc00317 	ldw	r19,12(sp)
  283650:	dc800217 	ldw	r18,8(sp)
  283654:	dc400117 	ldw	r17,4(sp)
  283658:	dc000017 	ldw	r16,0(sp)
  28365c:	dec00504 	addi	sp,sp,20
  283660:	f800283a 	ret
  283664:	90800f17 	ldw	r2,60(r18)
  283668:	00bfbe16 	blt	zero,r2,283564 <_fflush_r+0x58>
  28366c:	0007883a 	mov	r3,zero
  283670:	1805883a 	mov	r2,r3
  283674:	dfc00417 	ldw	ra,16(sp)
  283678:	dcc00317 	ldw	r19,12(sp)
  28367c:	dc800217 	ldw	r18,8(sp)
  283680:	dc400117 	ldw	r17,4(sp)
  283684:	dc000017 	ldw	r16,0(sp)
  283688:	dec00504 	addi	sp,sp,20
  28368c:	f800283a 	ret
  283690:	02837a40 	call	2837a4 <__sinit>
  283694:	003fa806 	br	283538 <_fflush_r+0x2c>
  283698:	90800517 	ldw	r2,20(r18)
  28369c:	90800215 	stw	r2,8(r18)
  2836a0:	003fda06 	br	28360c <_fflush_r+0x100>
  2836a4:	90800117 	ldw	r2,4(r18)
  2836a8:	90c00c17 	ldw	r3,48(r18)
  2836ac:	80a1c83a 	sub	r16,r16,r2
  2836b0:	183fb426 	beq	r3,zero,283584 <_fflush_r+0x78>
  2836b4:	90800f17 	ldw	r2,60(r18)
  2836b8:	80a1c83a 	sub	r16,r16,r2
  2836bc:	003fb106 	br	283584 <_fflush_r+0x78>
  2836c0:	91400717 	ldw	r5,28(r18)
  2836c4:	9809883a 	mov	r4,r19
  2836c8:	000d883a 	mov	r6,zero
  2836cc:	01c00044 	movi	r7,1
  2836d0:	403ee83a 	callr	r8
  2836d4:	1021883a 	mov	r16,r2
  2836d8:	00bfffc4 	movi	r2,-1
  2836dc:	80800226 	beq	r16,r2,2836e8 <_fflush_r+0x1dc>
  2836e0:	92000a17 	ldw	r8,40(r18)
  2836e4:	003fa406 	br	283578 <_fflush_r+0x6c>
  2836e8:	98c00017 	ldw	r3,0(r19)
  2836ec:	00800744 	movi	r2,29
  2836f0:	18bfde26 	beq	r3,r2,28366c <_fflush_r+0x160>
  2836f4:	9080030b 	ldhu	r2,12(r18)
  2836f8:	8007883a 	mov	r3,r16
  2836fc:	10801014 	ori	r2,r2,64
  283700:	9080030d 	sth	r2,12(r18)
  283704:	003fcf06 	br	283644 <_fflush_r+0x138>

00283708 <fflush>:
  283708:	01400a34 	movhi	r5,40
  28370c:	294d4304 	addi	r5,r5,13580
  283710:	2007883a 	mov	r3,r4
  283714:	20000526 	beq	r4,zero,28372c <fflush+0x24>
  283718:	00800a74 	movhi	r2,41
  28371c:	10ab1104 	addi	r2,r2,-21436
  283720:	11000017 	ldw	r4,0(r2)
  283724:	180b883a 	mov	r5,r3
  283728:	028350c1 	jmpi	28350c <_fflush_r>
  28372c:	00800a74 	movhi	r2,41
  283730:	10ab1204 	addi	r2,r2,-21432
  283734:	11000017 	ldw	r4,0(r2)
  283738:	02839fc1 	jmpi	2839fc <_fwalk_reent>

0028373c <std>:
  28373c:	00800a34 	movhi	r2,40
  283740:	108f6a04 	addi	r2,r2,15784
  283744:	20800b15 	stw	r2,44(r4)
  283748:	00800a34 	movhi	r2,40
  28374c:	108fa504 	addi	r2,r2,16020
  283750:	20800815 	stw	r2,32(r4)
  283754:	00c00a34 	movhi	r3,40
  283758:	18cf8604 	addi	r3,r3,15896
  28375c:	00800a34 	movhi	r2,40
  283760:	108f6c04 	addi	r2,r2,15792
  283764:	2140030d 	sth	r5,12(r4)
  283768:	2180038d 	sth	r6,14(r4)
  28376c:	20c00915 	stw	r3,36(r4)
  283770:	20800a15 	stw	r2,40(r4)
  283774:	20000015 	stw	zero,0(r4)
  283778:	20000115 	stw	zero,4(r4)
  28377c:	20000215 	stw	zero,8(r4)
  283780:	20000415 	stw	zero,16(r4)
  283784:	20000515 	stw	zero,20(r4)
  283788:	20000615 	stw	zero,24(r4)
  28378c:	21000715 	stw	r4,28(r4)
  283790:	f800283a 	ret

00283794 <__sfp_lock_acquire>:
  283794:	f800283a 	ret

00283798 <__sfp_lock_release>:
  283798:	f800283a 	ret

0028379c <__sinit_lock_acquire>:
  28379c:	f800283a 	ret

002837a0 <__sinit_lock_release>:
  2837a0:	f800283a 	ret

002837a4 <__sinit>:
  2837a4:	20800e17 	ldw	r2,56(r4)
  2837a8:	defffd04 	addi	sp,sp,-12
  2837ac:	dc400115 	stw	r17,4(sp)
  2837b0:	dc000015 	stw	r16,0(sp)
  2837b4:	dfc00215 	stw	ra,8(sp)
  2837b8:	04400044 	movi	r17,1
  2837bc:	01400104 	movi	r5,4
  2837c0:	000d883a 	mov	r6,zero
  2837c4:	2021883a 	mov	r16,r4
  2837c8:	2200bb04 	addi	r8,r4,748
  2837cc:	200f883a 	mov	r7,r4
  2837d0:	10000526 	beq	r2,zero,2837e8 <__sinit+0x44>
  2837d4:	dfc00217 	ldw	ra,8(sp)
  2837d8:	dc400117 	ldw	r17,4(sp)
  2837dc:	dc000017 	ldw	r16,0(sp)
  2837e0:	dec00304 	addi	sp,sp,12
  2837e4:	f800283a 	ret
  2837e8:	21000117 	ldw	r4,4(r4)
  2837ec:	00800a34 	movhi	r2,40
  2837f0:	108e2204 	addi	r2,r2,14472
  2837f4:	00c000c4 	movi	r3,3
  2837f8:	80800f15 	stw	r2,60(r16)
  2837fc:	80c0b915 	stw	r3,740(r16)
  283800:	8200ba15 	stw	r8,744(r16)
  283804:	84400e15 	stw	r17,56(r16)
  283808:	8000b815 	stw	zero,736(r16)
  28380c:	028373c0 	call	28373c <std>
  283810:	81000217 	ldw	r4,8(r16)
  283814:	880d883a 	mov	r6,r17
  283818:	800f883a 	mov	r7,r16
  28381c:	01400284 	movi	r5,10
  283820:	028373c0 	call	28373c <std>
  283824:	81000317 	ldw	r4,12(r16)
  283828:	800f883a 	mov	r7,r16
  28382c:	01400484 	movi	r5,18
  283830:	01800084 	movi	r6,2
  283834:	dfc00217 	ldw	ra,8(sp)
  283838:	dc400117 	ldw	r17,4(sp)
  28383c:	dc000017 	ldw	r16,0(sp)
  283840:	dec00304 	addi	sp,sp,12
  283844:	028373c1 	jmpi	28373c <std>

00283848 <__fp_lock>:
  283848:	0005883a 	mov	r2,zero
  28384c:	f800283a 	ret

00283850 <__fp_unlock>:
  283850:	0005883a 	mov	r2,zero
  283854:	f800283a 	ret

00283858 <__fp_unlock_all>:
  283858:	00800a74 	movhi	r2,41
  28385c:	10ab1104 	addi	r2,r2,-21436
  283860:	11000017 	ldw	r4,0(r2)
  283864:	01400a34 	movhi	r5,40
  283868:	294e1404 	addi	r5,r5,14416
  28386c:	0283ac41 	jmpi	283ac4 <_fwalk>

00283870 <__fp_lock_all>:
  283870:	00800a74 	movhi	r2,41
  283874:	10ab1104 	addi	r2,r2,-21436
  283878:	11000017 	ldw	r4,0(r2)
  28387c:	01400a34 	movhi	r5,40
  283880:	294e1204 	addi	r5,r5,14408
  283884:	0283ac41 	jmpi	283ac4 <_fwalk>

00283888 <_cleanup_r>:
  283888:	01400a34 	movhi	r5,40
  28388c:	29503b04 	addi	r5,r5,16620
  283890:	0283ac41 	jmpi	283ac4 <_fwalk>

00283894 <_cleanup>:
  283894:	00800a74 	movhi	r2,41
  283898:	10ab1204 	addi	r2,r2,-21432
  28389c:	11000017 	ldw	r4,0(r2)
  2838a0:	02838881 	jmpi	283888 <_cleanup_r>

002838a4 <__sfmoreglue>:
  2838a4:	defffc04 	addi	sp,sp,-16
  2838a8:	dc400115 	stw	r17,4(sp)
  2838ac:	2c401724 	muli	r17,r5,92
  2838b0:	dc800215 	stw	r18,8(sp)
  2838b4:	2825883a 	mov	r18,r5
  2838b8:	89400304 	addi	r5,r17,12
  2838bc:	dc000015 	stw	r16,0(sp)
  2838c0:	dfc00315 	stw	ra,12(sp)
  2838c4:	02815dc0 	call	2815dc <_malloc_r>
  2838c8:	0021883a 	mov	r16,zero
  2838cc:	880d883a 	mov	r6,r17
  2838d0:	000b883a 	mov	r5,zero
  2838d4:	10000626 	beq	r2,zero,2838f0 <__sfmoreglue+0x4c>
  2838d8:	11000304 	addi	r4,r2,12
  2838dc:	14800115 	stw	r18,4(r2)
  2838e0:	10000015 	stw	zero,0(r2)
  2838e4:	11000215 	stw	r4,8(r2)
  2838e8:	1021883a 	mov	r16,r2
  2838ec:	0283d100 	call	283d10 <memset>
  2838f0:	8005883a 	mov	r2,r16
  2838f4:	dfc00317 	ldw	ra,12(sp)
  2838f8:	dc800217 	ldw	r18,8(sp)
  2838fc:	dc400117 	ldw	r17,4(sp)
  283900:	dc000017 	ldw	r16,0(sp)
  283904:	dec00404 	addi	sp,sp,16
  283908:	f800283a 	ret

0028390c <__sfp>:
  28390c:	defffd04 	addi	sp,sp,-12
  283910:	00800a74 	movhi	r2,41
  283914:	10ab1204 	addi	r2,r2,-21432
  283918:	dc000015 	stw	r16,0(sp)
  28391c:	14000017 	ldw	r16,0(r2)
  283920:	dc400115 	stw	r17,4(sp)
  283924:	dfc00215 	stw	ra,8(sp)
  283928:	80800e17 	ldw	r2,56(r16)
  28392c:	2023883a 	mov	r17,r4
  283930:	10002626 	beq	r2,zero,2839cc <__sfp+0xc0>
  283934:	8400b804 	addi	r16,r16,736
  283938:	80800117 	ldw	r2,4(r16)
  28393c:	81000217 	ldw	r4,8(r16)
  283940:	10ffffc4 	addi	r3,r2,-1
  283944:	18000916 	blt	r3,zero,28396c <__sfp+0x60>
  283948:	2080030f 	ldh	r2,12(r4)
  28394c:	10000b26 	beq	r2,zero,28397c <__sfp+0x70>
  283950:	017fffc4 	movi	r5,-1
  283954:	00000206 	br	283960 <__sfp+0x54>
  283958:	2080030f 	ldh	r2,12(r4)
  28395c:	10000726 	beq	r2,zero,28397c <__sfp+0x70>
  283960:	18ffffc4 	addi	r3,r3,-1
  283964:	21001704 	addi	r4,r4,92
  283968:	197ffb1e 	bne	r3,r5,283958 <__sfp+0x4c>
  28396c:	80800017 	ldw	r2,0(r16)
  283970:	10001926 	beq	r2,zero,2839d8 <__sfp+0xcc>
  283974:	1021883a 	mov	r16,r2
  283978:	003fef06 	br	283938 <__sfp+0x2c>
  28397c:	00bfffc4 	movi	r2,-1
  283980:	00c00044 	movi	r3,1
  283984:	2080038d 	sth	r2,14(r4)
  283988:	20c0030d 	sth	r3,12(r4)
  28398c:	20000015 	stw	zero,0(r4)
  283990:	20000215 	stw	zero,8(r4)
  283994:	20000115 	stw	zero,4(r4)
  283998:	20000415 	stw	zero,16(r4)
  28399c:	20000515 	stw	zero,20(r4)
  2839a0:	20000615 	stw	zero,24(r4)
  2839a4:	20000c15 	stw	zero,48(r4)
  2839a8:	20000d15 	stw	zero,52(r4)
  2839ac:	20001115 	stw	zero,68(r4)
  2839b0:	20001215 	stw	zero,72(r4)
  2839b4:	2005883a 	mov	r2,r4
  2839b8:	dfc00217 	ldw	ra,8(sp)
  2839bc:	dc400117 	ldw	r17,4(sp)
  2839c0:	dc000017 	ldw	r16,0(sp)
  2839c4:	dec00304 	addi	sp,sp,12
  2839c8:	f800283a 	ret
  2839cc:	8009883a 	mov	r4,r16
  2839d0:	02837a40 	call	2837a4 <__sinit>
  2839d4:	003fd706 	br	283934 <__sfp+0x28>
  2839d8:	8809883a 	mov	r4,r17
  2839dc:	01400104 	movi	r5,4
  2839e0:	02838a40 	call	2838a4 <__sfmoreglue>
  2839e4:	80800015 	stw	r2,0(r16)
  2839e8:	103fe21e 	bne	r2,zero,283974 <__sfp+0x68>
  2839ec:	00800304 	movi	r2,12
  2839f0:	0009883a 	mov	r4,zero
  2839f4:	88800015 	stw	r2,0(r17)
  2839f8:	003fee06 	br	2839b4 <__sfp+0xa8>

002839fc <_fwalk_reent>:
  2839fc:	defff704 	addi	sp,sp,-36
  283a00:	dcc00315 	stw	r19,12(sp)
  283a04:	24c0b804 	addi	r19,r4,736
  283a08:	dd800615 	stw	r22,24(sp)
  283a0c:	dd400515 	stw	r21,20(sp)
  283a10:	dfc00815 	stw	ra,32(sp)
  283a14:	ddc00715 	stw	r23,28(sp)
  283a18:	dd000415 	stw	r20,16(sp)
  283a1c:	dc800215 	stw	r18,8(sp)
  283a20:	dc400115 	stw	r17,4(sp)
  283a24:	dc000015 	stw	r16,0(sp)
  283a28:	202b883a 	mov	r21,r4
  283a2c:	282d883a 	mov	r22,r5
  283a30:	02837940 	call	283794 <__sfp_lock_acquire>
  283a34:	98002126 	beq	r19,zero,283abc <_fwalk_reent+0xc0>
  283a38:	002f883a 	mov	r23,zero
  283a3c:	9c800117 	ldw	r18,4(r19)
  283a40:	9c000217 	ldw	r16,8(r19)
  283a44:	90bfffc4 	addi	r2,r18,-1
  283a48:	10000d16 	blt	r2,zero,283a80 <_fwalk_reent+0x84>
  283a4c:	0023883a 	mov	r17,zero
  283a50:	053fffc4 	movi	r20,-1
  283a54:	8080030f 	ldh	r2,12(r16)
  283a58:	8c400044 	addi	r17,r17,1
  283a5c:	10000626 	beq	r2,zero,283a78 <_fwalk_reent+0x7c>
  283a60:	8080038f 	ldh	r2,14(r16)
  283a64:	800b883a 	mov	r5,r16
  283a68:	a809883a 	mov	r4,r21
  283a6c:	15000226 	beq	r2,r20,283a78 <_fwalk_reent+0x7c>
  283a70:	b03ee83a 	callr	r22
  283a74:	b8aeb03a 	or	r23,r23,r2
  283a78:	84001704 	addi	r16,r16,92
  283a7c:	947ff51e 	bne	r18,r17,283a54 <_fwalk_reent+0x58>
  283a80:	9cc00017 	ldw	r19,0(r19)
  283a84:	983fed1e 	bne	r19,zero,283a3c <_fwalk_reent+0x40>
  283a88:	02837980 	call	283798 <__sfp_lock_release>
  283a8c:	b805883a 	mov	r2,r23
  283a90:	dfc00817 	ldw	ra,32(sp)
  283a94:	ddc00717 	ldw	r23,28(sp)
  283a98:	dd800617 	ldw	r22,24(sp)
  283a9c:	dd400517 	ldw	r21,20(sp)
  283aa0:	dd000417 	ldw	r20,16(sp)
  283aa4:	dcc00317 	ldw	r19,12(sp)
  283aa8:	dc800217 	ldw	r18,8(sp)
  283aac:	dc400117 	ldw	r17,4(sp)
  283ab0:	dc000017 	ldw	r16,0(sp)
  283ab4:	dec00904 	addi	sp,sp,36
  283ab8:	f800283a 	ret
  283abc:	002f883a 	mov	r23,zero
  283ac0:	003ff106 	br	283a88 <_fwalk_reent+0x8c>

00283ac4 <_fwalk>:
  283ac4:	defff804 	addi	sp,sp,-32
  283ac8:	dcc00315 	stw	r19,12(sp)
  283acc:	24c0b804 	addi	r19,r4,736
  283ad0:	dd400515 	stw	r21,20(sp)
  283ad4:	dfc00715 	stw	ra,28(sp)
  283ad8:	dd800615 	stw	r22,24(sp)
  283adc:	dd000415 	stw	r20,16(sp)
  283ae0:	dc800215 	stw	r18,8(sp)
  283ae4:	dc400115 	stw	r17,4(sp)
  283ae8:	dc000015 	stw	r16,0(sp)
  283aec:	282b883a 	mov	r21,r5
  283af0:	02837940 	call	283794 <__sfp_lock_acquire>
  283af4:	98001f26 	beq	r19,zero,283b74 <_fwalk+0xb0>
  283af8:	002d883a 	mov	r22,zero
  283afc:	9c800117 	ldw	r18,4(r19)
  283b00:	9c000217 	ldw	r16,8(r19)
  283b04:	90bfffc4 	addi	r2,r18,-1
  283b08:	10000c16 	blt	r2,zero,283b3c <_fwalk+0x78>
  283b0c:	0023883a 	mov	r17,zero
  283b10:	053fffc4 	movi	r20,-1
  283b14:	8080030f 	ldh	r2,12(r16)
  283b18:	8c400044 	addi	r17,r17,1
  283b1c:	10000526 	beq	r2,zero,283b34 <_fwalk+0x70>
  283b20:	8080038f 	ldh	r2,14(r16)
  283b24:	8009883a 	mov	r4,r16
  283b28:	15000226 	beq	r2,r20,283b34 <_fwalk+0x70>
  283b2c:	a83ee83a 	callr	r21
  283b30:	b0acb03a 	or	r22,r22,r2
  283b34:	84001704 	addi	r16,r16,92
  283b38:	947ff61e 	bne	r18,r17,283b14 <_fwalk+0x50>
  283b3c:	9cc00017 	ldw	r19,0(r19)
  283b40:	983fee1e 	bne	r19,zero,283afc <_fwalk+0x38>
  283b44:	02837980 	call	283798 <__sfp_lock_release>
  283b48:	b005883a 	mov	r2,r22
  283b4c:	dfc00717 	ldw	ra,28(sp)
  283b50:	dd800617 	ldw	r22,24(sp)
  283b54:	dd400517 	ldw	r21,20(sp)
  283b58:	dd000417 	ldw	r20,16(sp)
  283b5c:	dcc00317 	ldw	r19,12(sp)
  283b60:	dc800217 	ldw	r18,8(sp)
  283b64:	dc400117 	ldw	r17,4(sp)
  283b68:	dc000017 	ldw	r16,0(sp)
  283b6c:	dec00804 	addi	sp,sp,32
  283b70:	f800283a 	ret
  283b74:	002d883a 	mov	r22,zero
  283b78:	003ff206 	br	283b44 <_fwalk+0x80>

00283b7c <__smakebuf_r>:
  283b7c:	2880030b 	ldhu	r2,12(r5)
  283b80:	deffed04 	addi	sp,sp,-76
  283b84:	dc401015 	stw	r17,64(sp)
  283b88:	1080008c 	andi	r2,r2,2
  283b8c:	dc000f15 	stw	r16,60(sp)
  283b90:	dfc01215 	stw	ra,72(sp)
  283b94:	dc801115 	stw	r18,68(sp)
  283b98:	2821883a 	mov	r16,r5
  283b9c:	2023883a 	mov	r17,r4
  283ba0:	10000b26 	beq	r2,zero,283bd0 <__smakebuf_r+0x54>
  283ba4:	28c010c4 	addi	r3,r5,67
  283ba8:	00800044 	movi	r2,1
  283bac:	28800515 	stw	r2,20(r5)
  283bb0:	28c00415 	stw	r3,16(r5)
  283bb4:	28c00015 	stw	r3,0(r5)
  283bb8:	dfc01217 	ldw	ra,72(sp)
  283bbc:	dc801117 	ldw	r18,68(sp)
  283bc0:	dc401017 	ldw	r17,64(sp)
  283bc4:	dc000f17 	ldw	r16,60(sp)
  283bc8:	dec01304 	addi	sp,sp,76
  283bcc:	f800283a 	ret
  283bd0:	2940038f 	ldh	r5,14(r5)
  283bd4:	28002116 	blt	r5,zero,283c5c <__smakebuf_r+0xe0>
  283bd8:	d80d883a 	mov	r6,sp
  283bdc:	02841000 	call	284100 <_fstat_r>
  283be0:	10001e16 	blt	r2,zero,283c5c <__smakebuf_r+0xe0>
  283be4:	d8800117 	ldw	r2,4(sp)
  283be8:	00e00014 	movui	r3,32768
  283bec:	113c000c 	andi	r4,r2,61440
  283bf0:	20c03126 	beq	r4,r3,283cb8 <__smakebuf_r+0x13c>
  283bf4:	8080030b 	ldhu	r2,12(r16)
  283bf8:	00c80004 	movi	r3,8192
  283bfc:	10820014 	ori	r2,r2,2048
  283c00:	8080030d 	sth	r2,12(r16)
  283c04:	20c01e26 	beq	r4,r3,283c80 <__smakebuf_r+0x104>
  283c08:	04810004 	movi	r18,1024
  283c0c:	8809883a 	mov	r4,r17
  283c10:	900b883a 	mov	r5,r18
  283c14:	02815dc0 	call	2815dc <_malloc_r>
  283c18:	1009883a 	mov	r4,r2
  283c1c:	10003126 	beq	r2,zero,283ce4 <__smakebuf_r+0x168>
  283c20:	80c0030b 	ldhu	r3,12(r16)
  283c24:	00800a34 	movhi	r2,40
  283c28:	108e2204 	addi	r2,r2,14472
  283c2c:	88800f15 	stw	r2,60(r17)
  283c30:	18c02014 	ori	r3,r3,128
  283c34:	84800515 	stw	r18,20(r16)
  283c38:	80c0030d 	sth	r3,12(r16)
  283c3c:	81000415 	stw	r4,16(r16)
  283c40:	81000015 	stw	r4,0(r16)
  283c44:	dfc01217 	ldw	ra,72(sp)
  283c48:	dc801117 	ldw	r18,68(sp)
  283c4c:	dc401017 	ldw	r17,64(sp)
  283c50:	dc000f17 	ldw	r16,60(sp)
  283c54:	dec01304 	addi	sp,sp,76
  283c58:	f800283a 	ret
  283c5c:	80c0030b 	ldhu	r3,12(r16)
  283c60:	1880200c 	andi	r2,r3,128
  283c64:	10000426 	beq	r2,zero,283c78 <__smakebuf_r+0xfc>
  283c68:	04801004 	movi	r18,64
  283c6c:	18820014 	ori	r2,r3,2048
  283c70:	8080030d 	sth	r2,12(r16)
  283c74:	003fe506 	br	283c0c <__smakebuf_r+0x90>
  283c78:	04810004 	movi	r18,1024
  283c7c:	003ffb06 	br	283c6c <__smakebuf_r+0xf0>
  283c80:	8140038f 	ldh	r5,14(r16)
  283c84:	8809883a 	mov	r4,r17
  283c88:	02841740 	call	284174 <_isatty_r>
  283c8c:	103fde26 	beq	r2,zero,283c08 <__smakebuf_r+0x8c>
  283c90:	8080030b 	ldhu	r2,12(r16)
  283c94:	80c010c4 	addi	r3,r16,67
  283c98:	04810004 	movi	r18,1024
  283c9c:	10800054 	ori	r2,r2,1
  283ca0:	8080030d 	sth	r2,12(r16)
  283ca4:	00800044 	movi	r2,1
  283ca8:	80c00415 	stw	r3,16(r16)
  283cac:	80800515 	stw	r2,20(r16)
  283cb0:	80c00015 	stw	r3,0(r16)
  283cb4:	003fd506 	br	283c0c <__smakebuf_r+0x90>
  283cb8:	80c00a17 	ldw	r3,40(r16)
  283cbc:	00800a34 	movhi	r2,40
  283cc0:	108f6c04 	addi	r2,r2,15792
  283cc4:	18bfcb1e 	bne	r3,r2,283bf4 <__smakebuf_r+0x78>
  283cc8:	8080030b 	ldhu	r2,12(r16)
  283ccc:	00c10004 	movi	r3,1024
  283cd0:	1825883a 	mov	r18,r3
  283cd4:	10c4b03a 	or	r2,r2,r3
  283cd8:	8080030d 	sth	r2,12(r16)
  283cdc:	80c01315 	stw	r3,76(r16)
  283ce0:	003fca06 	br	283c0c <__smakebuf_r+0x90>
  283ce4:	8100030b 	ldhu	r4,12(r16)
  283ce8:	2080800c 	andi	r2,r4,512
  283cec:	103fb21e 	bne	r2,zero,283bb8 <__smakebuf_r+0x3c>
  283cf0:	80c010c4 	addi	r3,r16,67
  283cf4:	21000094 	ori	r4,r4,2
  283cf8:	00800044 	movi	r2,1
  283cfc:	80800515 	stw	r2,20(r16)
  283d00:	8100030d 	sth	r4,12(r16)
  283d04:	80c00415 	stw	r3,16(r16)
  283d08:	80c00015 	stw	r3,0(r16)
  283d0c:	003faa06 	br	283bb8 <__smakebuf_r+0x3c>

00283d10 <memset>:
  283d10:	008000c4 	movi	r2,3
  283d14:	29403fcc 	andi	r5,r5,255
  283d18:	2007883a 	mov	r3,r4
  283d1c:	1180022e 	bgeu	r2,r6,283d28 <memset+0x18>
  283d20:	2084703a 	and	r2,r4,r2
  283d24:	10000826 	beq	r2,zero,283d48 <memset+0x38>
  283d28:	30000526 	beq	r6,zero,283d40 <memset+0x30>
  283d2c:	2805883a 	mov	r2,r5
  283d30:	30cd883a 	add	r6,r6,r3
  283d34:	18800005 	stb	r2,0(r3)
  283d38:	18c00044 	addi	r3,r3,1
  283d3c:	19bffd1e 	bne	r3,r6,283d34 <memset+0x24>
  283d40:	2005883a 	mov	r2,r4
  283d44:	f800283a 	ret
  283d48:	2804923a 	slli	r2,r5,8
  283d4c:	020003c4 	movi	r8,15
  283d50:	200f883a 	mov	r7,r4
  283d54:	2884b03a 	or	r2,r5,r2
  283d58:	1006943a 	slli	r3,r2,16
  283d5c:	10c6b03a 	or	r3,r2,r3
  283d60:	41800a2e 	bgeu	r8,r6,283d8c <memset+0x7c>
  283d64:	4005883a 	mov	r2,r8
  283d68:	31bffc04 	addi	r6,r6,-16
  283d6c:	38c00015 	stw	r3,0(r7)
  283d70:	38c00115 	stw	r3,4(r7)
  283d74:	38c00215 	stw	r3,8(r7)
  283d78:	38c00315 	stw	r3,12(r7)
  283d7c:	39c00404 	addi	r7,r7,16
  283d80:	11bff936 	bltu	r2,r6,283d68 <memset+0x58>
  283d84:	008000c4 	movi	r2,3
  283d88:	1180052e 	bgeu	r2,r6,283da0 <memset+0x90>
  283d8c:	31bfff04 	addi	r6,r6,-4
  283d90:	008000c4 	movi	r2,3
  283d94:	38c00015 	stw	r3,0(r7)
  283d98:	39c00104 	addi	r7,r7,4
  283d9c:	11bffb36 	bltu	r2,r6,283d8c <memset+0x7c>
  283da0:	3807883a 	mov	r3,r7
  283da4:	003fe006 	br	283d28 <memset+0x18>

00283da8 <__sclose>:
  283da8:	2940038f 	ldh	r5,14(r5)
  283dac:	0283f6c1 	jmpi	283f6c <_close_r>

00283db0 <__sseek>:
  283db0:	defffe04 	addi	sp,sp,-8
  283db4:	dc000015 	stw	r16,0(sp)
  283db8:	2821883a 	mov	r16,r5
  283dbc:	2940038f 	ldh	r5,14(r5)
  283dc0:	dfc00115 	stw	ra,4(sp)
  283dc4:	02841e40 	call	2841e4 <_lseek_r>
  283dc8:	1007883a 	mov	r3,r2
  283dcc:	00bfffc4 	movi	r2,-1
  283dd0:	18800926 	beq	r3,r2,283df8 <__sseek+0x48>
  283dd4:	8080030b 	ldhu	r2,12(r16)
  283dd8:	80c01415 	stw	r3,80(r16)
  283ddc:	10840014 	ori	r2,r2,4096
  283de0:	8080030d 	sth	r2,12(r16)
  283de4:	1805883a 	mov	r2,r3
  283de8:	dfc00117 	ldw	ra,4(sp)
  283dec:	dc000017 	ldw	r16,0(sp)
  283df0:	dec00204 	addi	sp,sp,8
  283df4:	f800283a 	ret
  283df8:	8080030b 	ldhu	r2,12(r16)
  283dfc:	10bbffcc 	andi	r2,r2,61439
  283e00:	8080030d 	sth	r2,12(r16)
  283e04:	1805883a 	mov	r2,r3
  283e08:	dfc00117 	ldw	ra,4(sp)
  283e0c:	dc000017 	ldw	r16,0(sp)
  283e10:	dec00204 	addi	sp,sp,8
  283e14:	f800283a 	ret

00283e18 <__swrite>:
  283e18:	2880030b 	ldhu	r2,12(r5)
  283e1c:	defffb04 	addi	sp,sp,-20
  283e20:	dcc00315 	stw	r19,12(sp)
  283e24:	1080400c 	andi	r2,r2,256
  283e28:	dc800215 	stw	r18,8(sp)
  283e2c:	dc400115 	stw	r17,4(sp)
  283e30:	dc000015 	stw	r16,0(sp)
  283e34:	3027883a 	mov	r19,r6
  283e38:	3825883a 	mov	r18,r7
  283e3c:	dfc00415 	stw	ra,16(sp)
  283e40:	2821883a 	mov	r16,r5
  283e44:	000d883a 	mov	r6,zero
  283e48:	01c00084 	movi	r7,2
  283e4c:	2023883a 	mov	r17,r4
  283e50:	10000226 	beq	r2,zero,283e5c <__swrite+0x44>
  283e54:	2940038f 	ldh	r5,14(r5)
  283e58:	02841e40 	call	2841e4 <_lseek_r>
  283e5c:	8080030b 	ldhu	r2,12(r16)
  283e60:	8140038f 	ldh	r5,14(r16)
  283e64:	8809883a 	mov	r4,r17
  283e68:	10bbffcc 	andi	r2,r2,61439
  283e6c:	980d883a 	mov	r6,r19
  283e70:	900f883a 	mov	r7,r18
  283e74:	8080030d 	sth	r2,12(r16)
  283e78:	dfc00417 	ldw	ra,16(sp)
  283e7c:	dcc00317 	ldw	r19,12(sp)
  283e80:	dc800217 	ldw	r18,8(sp)
  283e84:	dc400117 	ldw	r17,4(sp)
  283e88:	dc000017 	ldw	r16,0(sp)
  283e8c:	dec00504 	addi	sp,sp,20
  283e90:	0283ef41 	jmpi	283ef4 <_write_r>

00283e94 <__sread>:
  283e94:	defffe04 	addi	sp,sp,-8
  283e98:	dc000015 	stw	r16,0(sp)
  283e9c:	2821883a 	mov	r16,r5
  283ea0:	2940038f 	ldh	r5,14(r5)
  283ea4:	dfc00115 	stw	ra,4(sp)
  283ea8:	028425c0 	call	28425c <_read_r>
  283eac:	1007883a 	mov	r3,r2
  283eb0:	10000816 	blt	r2,zero,283ed4 <__sread+0x40>
  283eb4:	80801417 	ldw	r2,80(r16)
  283eb8:	10c5883a 	add	r2,r2,r3
  283ebc:	80801415 	stw	r2,80(r16)
  283ec0:	1805883a 	mov	r2,r3
  283ec4:	dfc00117 	ldw	ra,4(sp)
  283ec8:	dc000017 	ldw	r16,0(sp)
  283ecc:	dec00204 	addi	sp,sp,8
  283ed0:	f800283a 	ret
  283ed4:	8080030b 	ldhu	r2,12(r16)
  283ed8:	10bbffcc 	andi	r2,r2,61439
  283edc:	8080030d 	sth	r2,12(r16)
  283ee0:	1805883a 	mov	r2,r3
  283ee4:	dfc00117 	ldw	ra,4(sp)
  283ee8:	dc000017 	ldw	r16,0(sp)
  283eec:	dec00204 	addi	sp,sp,8
  283ef0:	f800283a 	ret

00283ef4 <_write_r>:
  283ef4:	defffd04 	addi	sp,sp,-12
  283ef8:	dc000015 	stw	r16,0(sp)
  283efc:	04000a74 	movhi	r16,41
  283f00:	8432c704 	addi	r16,r16,-13540
  283f04:	dc400115 	stw	r17,4(sp)
  283f08:	80000015 	stw	zero,0(r16)
  283f0c:	2023883a 	mov	r17,r4
  283f10:	2809883a 	mov	r4,r5
  283f14:	300b883a 	mov	r5,r6
  283f18:	380d883a 	mov	r6,r7
  283f1c:	dfc00215 	stw	ra,8(sp)
  283f20:	02851200 	call	285120 <write>
  283f24:	1007883a 	mov	r3,r2
  283f28:	00bfffc4 	movi	r2,-1
  283f2c:	18800626 	beq	r3,r2,283f48 <_write_r+0x54>
  283f30:	1805883a 	mov	r2,r3
  283f34:	dfc00217 	ldw	ra,8(sp)
  283f38:	dc400117 	ldw	r17,4(sp)
  283f3c:	dc000017 	ldw	r16,0(sp)
  283f40:	dec00304 	addi	sp,sp,12
  283f44:	f800283a 	ret
  283f48:	80800017 	ldw	r2,0(r16)
  283f4c:	103ff826 	beq	r2,zero,283f30 <_write_r+0x3c>
  283f50:	88800015 	stw	r2,0(r17)
  283f54:	1805883a 	mov	r2,r3
  283f58:	dfc00217 	ldw	ra,8(sp)
  283f5c:	dc400117 	ldw	r17,4(sp)
  283f60:	dc000017 	ldw	r16,0(sp)
  283f64:	dec00304 	addi	sp,sp,12
  283f68:	f800283a 	ret

00283f6c <_close_r>:
  283f6c:	defffd04 	addi	sp,sp,-12
  283f70:	dc000015 	stw	r16,0(sp)
  283f74:	04000a74 	movhi	r16,41
  283f78:	8432c704 	addi	r16,r16,-13540
  283f7c:	dc400115 	stw	r17,4(sp)
  283f80:	80000015 	stw	zero,0(r16)
  283f84:	2023883a 	mov	r17,r4
  283f88:	2809883a 	mov	r4,r5
  283f8c:	dfc00215 	stw	ra,8(sp)
  283f90:	02842d40 	call	2842d4 <close>
  283f94:	1007883a 	mov	r3,r2
  283f98:	00bfffc4 	movi	r2,-1
  283f9c:	18800626 	beq	r3,r2,283fb8 <_close_r+0x4c>
  283fa0:	1805883a 	mov	r2,r3
  283fa4:	dfc00217 	ldw	ra,8(sp)
  283fa8:	dc400117 	ldw	r17,4(sp)
  283fac:	dc000017 	ldw	r16,0(sp)
  283fb0:	dec00304 	addi	sp,sp,12
  283fb4:	f800283a 	ret
  283fb8:	80800017 	ldw	r2,0(r16)
  283fbc:	103ff826 	beq	r2,zero,283fa0 <_close_r+0x34>
  283fc0:	88800015 	stw	r2,0(r17)
  283fc4:	1805883a 	mov	r2,r3
  283fc8:	dfc00217 	ldw	ra,8(sp)
  283fcc:	dc400117 	ldw	r17,4(sp)
  283fd0:	dc000017 	ldw	r16,0(sp)
  283fd4:	dec00304 	addi	sp,sp,12
  283fd8:	f800283a 	ret

00283fdc <_fclose_r>:
  283fdc:	defffc04 	addi	sp,sp,-16
  283fe0:	dc400115 	stw	r17,4(sp)
  283fe4:	dc000015 	stw	r16,0(sp)
  283fe8:	dfc00315 	stw	ra,12(sp)
  283fec:	dc800215 	stw	r18,8(sp)
  283ff0:	2821883a 	mov	r16,r5
  283ff4:	2023883a 	mov	r17,r4
  283ff8:	28002926 	beq	r5,zero,2840a0 <_fclose_r+0xc4>
  283ffc:	02837940 	call	283794 <__sfp_lock_acquire>
  284000:	88000226 	beq	r17,zero,28400c <_fclose_r+0x30>
  284004:	88800e17 	ldw	r2,56(r17)
  284008:	10002d26 	beq	r2,zero,2840c0 <_fclose_r+0xe4>
  28400c:	8080030f 	ldh	r2,12(r16)
  284010:	10002226 	beq	r2,zero,28409c <_fclose_r+0xc0>
  284014:	8809883a 	mov	r4,r17
  284018:	800b883a 	mov	r5,r16
  28401c:	028350c0 	call	28350c <_fflush_r>
  284020:	1025883a 	mov	r18,r2
  284024:	80800b17 	ldw	r2,44(r16)
  284028:	10000426 	beq	r2,zero,28403c <_fclose_r+0x60>
  28402c:	81400717 	ldw	r5,28(r16)
  284030:	8809883a 	mov	r4,r17
  284034:	103ee83a 	callr	r2
  284038:	10002a16 	blt	r2,zero,2840e4 <_fclose_r+0x108>
  28403c:	8080030b 	ldhu	r2,12(r16)
  284040:	1080200c 	andi	r2,r2,128
  284044:	1000231e 	bne	r2,zero,2840d4 <_fclose_r+0xf8>
  284048:	81400c17 	ldw	r5,48(r16)
  28404c:	28000526 	beq	r5,zero,284064 <_fclose_r+0x88>
  284050:	80801004 	addi	r2,r16,64
  284054:	28800226 	beq	r5,r2,284060 <_fclose_r+0x84>
  284058:	8809883a 	mov	r4,r17
  28405c:	02820900 	call	282090 <_free_r>
  284060:	80000c15 	stw	zero,48(r16)
  284064:	81401117 	ldw	r5,68(r16)
  284068:	28000326 	beq	r5,zero,284078 <_fclose_r+0x9c>
  28406c:	8809883a 	mov	r4,r17
  284070:	02820900 	call	282090 <_free_r>
  284074:	80001115 	stw	zero,68(r16)
  284078:	8000030d 	sth	zero,12(r16)
  28407c:	02837980 	call	283798 <__sfp_lock_release>
  284080:	9005883a 	mov	r2,r18
  284084:	dfc00317 	ldw	ra,12(sp)
  284088:	dc800217 	ldw	r18,8(sp)
  28408c:	dc400117 	ldw	r17,4(sp)
  284090:	dc000017 	ldw	r16,0(sp)
  284094:	dec00404 	addi	sp,sp,16
  284098:	f800283a 	ret
  28409c:	02837980 	call	283798 <__sfp_lock_release>
  2840a0:	0025883a 	mov	r18,zero
  2840a4:	9005883a 	mov	r2,r18
  2840a8:	dfc00317 	ldw	ra,12(sp)
  2840ac:	dc800217 	ldw	r18,8(sp)
  2840b0:	dc400117 	ldw	r17,4(sp)
  2840b4:	dc000017 	ldw	r16,0(sp)
  2840b8:	dec00404 	addi	sp,sp,16
  2840bc:	f800283a 	ret
  2840c0:	8809883a 	mov	r4,r17
  2840c4:	02837a40 	call	2837a4 <__sinit>
  2840c8:	8080030f 	ldh	r2,12(r16)
  2840cc:	103fd11e 	bne	r2,zero,284014 <_fclose_r+0x38>
  2840d0:	003ff206 	br	28409c <_fclose_r+0xc0>
  2840d4:	81400417 	ldw	r5,16(r16)
  2840d8:	8809883a 	mov	r4,r17
  2840dc:	02820900 	call	282090 <_free_r>
  2840e0:	003fd906 	br	284048 <_fclose_r+0x6c>
  2840e4:	04bfffc4 	movi	r18,-1
  2840e8:	003fd406 	br	28403c <_fclose_r+0x60>

002840ec <fclose>:
  2840ec:	00800a74 	movhi	r2,41
  2840f0:	10ab1104 	addi	r2,r2,-21436
  2840f4:	200b883a 	mov	r5,r4
  2840f8:	11000017 	ldw	r4,0(r2)
  2840fc:	0283fdc1 	jmpi	283fdc <_fclose_r>

00284100 <_fstat_r>:
  284100:	defffd04 	addi	sp,sp,-12
  284104:	dc000015 	stw	r16,0(sp)
  284108:	04000a74 	movhi	r16,41
  28410c:	8432c704 	addi	r16,r16,-13540
  284110:	dc400115 	stw	r17,4(sp)
  284114:	80000015 	stw	zero,0(r16)
  284118:	2023883a 	mov	r17,r4
  28411c:	2809883a 	mov	r4,r5
  284120:	300b883a 	mov	r5,r6
  284124:	dfc00215 	stw	ra,8(sp)
  284128:	02844f00 	call	2844f0 <fstat>
  28412c:	1007883a 	mov	r3,r2
  284130:	00bfffc4 	movi	r2,-1
  284134:	18800626 	beq	r3,r2,284150 <_fstat_r+0x50>
  284138:	1805883a 	mov	r2,r3
  28413c:	dfc00217 	ldw	ra,8(sp)
  284140:	dc400117 	ldw	r17,4(sp)
  284144:	dc000017 	ldw	r16,0(sp)
  284148:	dec00304 	addi	sp,sp,12
  28414c:	f800283a 	ret
  284150:	80800017 	ldw	r2,0(r16)
  284154:	103ff826 	beq	r2,zero,284138 <_fstat_r+0x38>
  284158:	88800015 	stw	r2,0(r17)
  28415c:	1805883a 	mov	r2,r3
  284160:	dfc00217 	ldw	ra,8(sp)
  284164:	dc400117 	ldw	r17,4(sp)
  284168:	dc000017 	ldw	r16,0(sp)
  28416c:	dec00304 	addi	sp,sp,12
  284170:	f800283a 	ret

00284174 <_isatty_r>:
  284174:	defffd04 	addi	sp,sp,-12
  284178:	dc000015 	stw	r16,0(sp)
  28417c:	04000a74 	movhi	r16,41
  284180:	8432c704 	addi	r16,r16,-13540
  284184:	dc400115 	stw	r17,4(sp)
  284188:	80000015 	stw	zero,0(r16)
  28418c:	2023883a 	mov	r17,r4
  284190:	2809883a 	mov	r4,r5
  284194:	dfc00215 	stw	ra,8(sp)
  284198:	02847e40 	call	2847e4 <isatty>
  28419c:	1007883a 	mov	r3,r2
  2841a0:	00bfffc4 	movi	r2,-1
  2841a4:	18800626 	beq	r3,r2,2841c0 <_isatty_r+0x4c>
  2841a8:	1805883a 	mov	r2,r3
  2841ac:	dfc00217 	ldw	ra,8(sp)
  2841b0:	dc400117 	ldw	r17,4(sp)
  2841b4:	dc000017 	ldw	r16,0(sp)
  2841b8:	dec00304 	addi	sp,sp,12
  2841bc:	f800283a 	ret
  2841c0:	80800017 	ldw	r2,0(r16)
  2841c4:	103ff826 	beq	r2,zero,2841a8 <_isatty_r+0x34>
  2841c8:	88800015 	stw	r2,0(r17)
  2841cc:	1805883a 	mov	r2,r3
  2841d0:	dfc00217 	ldw	ra,8(sp)
  2841d4:	dc400117 	ldw	r17,4(sp)
  2841d8:	dc000017 	ldw	r16,0(sp)
  2841dc:	dec00304 	addi	sp,sp,12
  2841e0:	f800283a 	ret

002841e4 <_lseek_r>:
  2841e4:	defffd04 	addi	sp,sp,-12
  2841e8:	dc000015 	stw	r16,0(sp)
  2841ec:	04000a74 	movhi	r16,41
  2841f0:	8432c704 	addi	r16,r16,-13540
  2841f4:	dc400115 	stw	r17,4(sp)
  2841f8:	80000015 	stw	zero,0(r16)
  2841fc:	2023883a 	mov	r17,r4
  284200:	2809883a 	mov	r4,r5
  284204:	300b883a 	mov	r5,r6
  284208:	380d883a 	mov	r6,r7
  28420c:	dfc00215 	stw	ra,8(sp)
  284210:	02849f00 	call	2849f0 <lseek>
  284214:	1007883a 	mov	r3,r2
  284218:	00bfffc4 	movi	r2,-1
  28421c:	18800626 	beq	r3,r2,284238 <_lseek_r+0x54>
  284220:	1805883a 	mov	r2,r3
  284224:	dfc00217 	ldw	ra,8(sp)
  284228:	dc400117 	ldw	r17,4(sp)
  28422c:	dc000017 	ldw	r16,0(sp)
  284230:	dec00304 	addi	sp,sp,12
  284234:	f800283a 	ret
  284238:	80800017 	ldw	r2,0(r16)
  28423c:	103ff826 	beq	r2,zero,284220 <_lseek_r+0x3c>
  284240:	88800015 	stw	r2,0(r17)
  284244:	1805883a 	mov	r2,r3
  284248:	dfc00217 	ldw	ra,8(sp)
  28424c:	dc400117 	ldw	r17,4(sp)
  284250:	dc000017 	ldw	r16,0(sp)
  284254:	dec00304 	addi	sp,sp,12
  284258:	f800283a 	ret

0028425c <_read_r>:
  28425c:	defffd04 	addi	sp,sp,-12
  284260:	dc000015 	stw	r16,0(sp)
  284264:	04000a74 	movhi	r16,41
  284268:	8432c704 	addi	r16,r16,-13540
  28426c:	dc400115 	stw	r17,4(sp)
  284270:	80000015 	stw	zero,0(r16)
  284274:	2023883a 	mov	r17,r4
  284278:	2809883a 	mov	r4,r5
  28427c:	300b883a 	mov	r5,r6
  284280:	380d883a 	mov	r6,r7
  284284:	dfc00215 	stw	ra,8(sp)
  284288:	0284e840 	call	284e84 <read>
  28428c:	1007883a 	mov	r3,r2
  284290:	00bfffc4 	movi	r2,-1
  284294:	18800626 	beq	r3,r2,2842b0 <_read_r+0x54>
  284298:	1805883a 	mov	r2,r3
  28429c:	dfc00217 	ldw	ra,8(sp)
  2842a0:	dc400117 	ldw	r17,4(sp)
  2842a4:	dc000017 	ldw	r16,0(sp)
  2842a8:	dec00304 	addi	sp,sp,12
  2842ac:	f800283a 	ret
  2842b0:	80800017 	ldw	r2,0(r16)
  2842b4:	103ff826 	beq	r2,zero,284298 <_read_r+0x3c>
  2842b8:	88800015 	stw	r2,0(r17)
  2842bc:	1805883a 	mov	r2,r3
  2842c0:	dfc00217 	ldw	ra,8(sp)
  2842c4:	dc400117 	ldw	r17,4(sp)
  2842c8:	dc000017 	ldw	r16,0(sp)
  2842cc:	dec00304 	addi	sp,sp,12
  2842d0:	f800283a 	ret

002842d4 <close>:
  2842d4:	defff804 	addi	sp,sp,-32
  2842d8:	dfc00715 	stw	ra,28(sp)
  2842dc:	df000615 	stw	fp,24(sp)
  2842e0:	df000604 	addi	fp,sp,24
  2842e4:	e13ffc15 	stw	r4,-16(fp)
  2842e8:	e0bffc17 	ldw	r2,-16(fp)
  2842ec:	1004803a 	cmplt	r2,r2,zero
  2842f0:	1000081e 	bne	r2,zero,284314 <close+0x40>
  2842f4:	e0bffc17 	ldw	r2,-16(fp)
  2842f8:	10800324 	muli	r2,r2,12
  2842fc:	1007883a 	mov	r3,r2
  284300:	00800a74 	movhi	r2,41
  284304:	10a63e04 	addi	r2,r2,-26376
  284308:	1887883a 	add	r3,r3,r2
  28430c:	e0ffff15 	stw	r3,-4(fp)
  284310:	00000106 	br	284318 <close+0x44>
  284314:	e03fff15 	stw	zero,-4(fp)
  284318:	e0bfff17 	ldw	r2,-4(fp)
  28431c:	e0bffb15 	stw	r2,-20(fp)
  284320:	e0bffb17 	ldw	r2,-20(fp)
  284324:	1005003a 	cmpeq	r2,r2,zero
  284328:	10001d1e 	bne	r2,zero,2843a0 <close+0xcc>
  28432c:	e0bffb17 	ldw	r2,-20(fp)
  284330:	10800017 	ldw	r2,0(r2)
  284334:	10800417 	ldw	r2,16(r2)
  284338:	1005003a 	cmpeq	r2,r2,zero
  28433c:	1000071e 	bne	r2,zero,28435c <close+0x88>
  284340:	e0bffb17 	ldw	r2,-20(fp)
  284344:	10800017 	ldw	r2,0(r2)
  284348:	10800417 	ldw	r2,16(r2)
  28434c:	e13ffb17 	ldw	r4,-20(fp)
  284350:	103ee83a 	callr	r2
  284354:	e0bffe15 	stw	r2,-8(fp)
  284358:	00000106 	br	284360 <close+0x8c>
  28435c:	e03ffe15 	stw	zero,-8(fp)
  284360:	e0bffe17 	ldw	r2,-8(fp)
  284364:	e0bffa15 	stw	r2,-24(fp)
  284368:	e13ffc17 	ldw	r4,-16(fp)
  28436c:	02850040 	call	285004 <alt_release_fd>
  284370:	e0bffa17 	ldw	r2,-24(fp)
  284374:	1004403a 	cmpge	r2,r2,zero
  284378:	1000071e 	bne	r2,zero,284398 <close+0xc4>
  28437c:	02843d00 	call	2843d0 <alt_get_errno>
  284380:	e0fffa17 	ldw	r3,-24(fp)
  284384:	00c7c83a 	sub	r3,zero,r3
  284388:	10c00015 	stw	r3,0(r2)
  28438c:	00bfffc4 	movi	r2,-1
  284390:	e0bffd15 	stw	r2,-12(fp)
  284394:	00000806 	br	2843b8 <close+0xe4>
  284398:	e03ffd15 	stw	zero,-12(fp)
  28439c:	00000606 	br	2843b8 <close+0xe4>
  2843a0:	02843d00 	call	2843d0 <alt_get_errno>
  2843a4:	1007883a 	mov	r3,r2
  2843a8:	00801444 	movi	r2,81
  2843ac:	18800015 	stw	r2,0(r3)
  2843b0:	00bfffc4 	movi	r2,-1
  2843b4:	e0bffd15 	stw	r2,-12(fp)
  2843b8:	e0bffd17 	ldw	r2,-12(fp)
  2843bc:	e037883a 	mov	sp,fp
  2843c0:	dfc00117 	ldw	ra,4(sp)
  2843c4:	df000017 	ldw	fp,0(sp)
  2843c8:	dec00204 	addi	sp,sp,8
  2843cc:	f800283a 	ret

002843d0 <alt_get_errno>:
  2843d0:	defffd04 	addi	sp,sp,-12
  2843d4:	dfc00215 	stw	ra,8(sp)
  2843d8:	df000115 	stw	fp,4(sp)
  2843dc:	df000104 	addi	fp,sp,4
  2843e0:	00800a74 	movhi	r2,41
  2843e4:	10ab1804 	addi	r2,r2,-21408
  2843e8:	10800017 	ldw	r2,0(r2)
  2843ec:	1005003a 	cmpeq	r2,r2,zero
  2843f0:	1000061e 	bne	r2,zero,28440c <alt_get_errno+0x3c>
  2843f4:	00800a74 	movhi	r2,41
  2843f8:	10ab1804 	addi	r2,r2,-21408
  2843fc:	10800017 	ldw	r2,0(r2)
  284400:	103ee83a 	callr	r2
  284404:	e0bfff15 	stw	r2,-4(fp)
  284408:	00000306 	br	284418 <alt_get_errno+0x48>
  28440c:	00800a74 	movhi	r2,41
  284410:	10b2c704 	addi	r2,r2,-13540
  284414:	e0bfff15 	stw	r2,-4(fp)
  284418:	e0bfff17 	ldw	r2,-4(fp)
  28441c:	e037883a 	mov	sp,fp
  284420:	dfc00117 	ldw	ra,4(sp)
  284424:	df000017 	ldw	fp,0(sp)
  284428:	dec00204 	addi	sp,sp,8
  28442c:	f800283a 	ret

00284430 <alt_dev_null_write>:
  284430:	defffc04 	addi	sp,sp,-16
  284434:	df000315 	stw	fp,12(sp)
  284438:	df000304 	addi	fp,sp,12
  28443c:	e13ffd15 	stw	r4,-12(fp)
  284440:	e17ffe15 	stw	r5,-8(fp)
  284444:	e1bfff15 	stw	r6,-4(fp)
  284448:	e0bfff17 	ldw	r2,-4(fp)
  28444c:	e037883a 	mov	sp,fp
  284450:	df000017 	ldw	fp,0(sp)
  284454:	dec00104 	addi	sp,sp,4
  284458:	f800283a 	ret

0028445c <alt_find_dev>:
  28445c:	defff904 	addi	sp,sp,-28
  284460:	dfc00615 	stw	ra,24(sp)
  284464:	df000515 	stw	fp,20(sp)
  284468:	df000504 	addi	fp,sp,20
  28446c:	e13ffd15 	stw	r4,-12(fp)
  284470:	e17ffe15 	stw	r5,-8(fp)
  284474:	e0bffe17 	ldw	r2,-8(fp)
  284478:	10800017 	ldw	r2,0(r2)
  28447c:	e0bffc15 	stw	r2,-16(fp)
  284480:	e13ffd17 	ldw	r4,-12(fp)
  284484:	0281ef00 	call	281ef0 <strlen>
  284488:	10800044 	addi	r2,r2,1
  28448c:	e0bffb15 	stw	r2,-20(fp)
  284490:	00000d06 	br	2844c8 <alt_find_dev+0x6c>
  284494:	e0bffc17 	ldw	r2,-16(fp)
  284498:	11000217 	ldw	r4,8(r2)
  28449c:	e1bffb17 	ldw	r6,-20(fp)
  2844a0:	e17ffd17 	ldw	r5,-12(fp)
  2844a4:	028854c0 	call	28854c <memcmp>
  2844a8:	1004c03a 	cmpne	r2,r2,zero
  2844ac:	1000031e 	bne	r2,zero,2844bc <alt_find_dev+0x60>
  2844b0:	e0bffc17 	ldw	r2,-16(fp)
  2844b4:	e0bfff15 	stw	r2,-4(fp)
  2844b8:	00000706 	br	2844d8 <alt_find_dev+0x7c>
  2844bc:	e0bffc17 	ldw	r2,-16(fp)
  2844c0:	10800017 	ldw	r2,0(r2)
  2844c4:	e0bffc15 	stw	r2,-16(fp)
  2844c8:	e0fffe17 	ldw	r3,-8(fp)
  2844cc:	e0bffc17 	ldw	r2,-16(fp)
  2844d0:	10fff01e 	bne	r2,r3,284494 <alt_find_dev+0x38>
  2844d4:	e03fff15 	stw	zero,-4(fp)
  2844d8:	e0bfff17 	ldw	r2,-4(fp)
  2844dc:	e037883a 	mov	sp,fp
  2844e0:	dfc00117 	ldw	ra,4(sp)
  2844e4:	df000017 	ldw	fp,0(sp)
  2844e8:	dec00204 	addi	sp,sp,8
  2844ec:	f800283a 	ret

002844f0 <fstat>:
  2844f0:	defff904 	addi	sp,sp,-28
  2844f4:	dfc00615 	stw	ra,24(sp)
  2844f8:	df000515 	stw	fp,20(sp)
  2844fc:	df000504 	addi	fp,sp,20
  284500:	e13ffc15 	stw	r4,-16(fp)
  284504:	e17ffd15 	stw	r5,-12(fp)
  284508:	e0bffc17 	ldw	r2,-16(fp)
  28450c:	1004803a 	cmplt	r2,r2,zero
  284510:	1000081e 	bne	r2,zero,284534 <fstat+0x44>
  284514:	e0bffc17 	ldw	r2,-16(fp)
  284518:	10800324 	muli	r2,r2,12
  28451c:	1007883a 	mov	r3,r2
  284520:	00800a74 	movhi	r2,41
  284524:	10a63e04 	addi	r2,r2,-26376
  284528:	1887883a 	add	r3,r3,r2
  28452c:	e0ffff15 	stw	r3,-4(fp)
  284530:	00000106 	br	284538 <fstat+0x48>
  284534:	e03fff15 	stw	zero,-4(fp)
  284538:	e0bfff17 	ldw	r2,-4(fp)
  28453c:	e0bffb15 	stw	r2,-20(fp)
  284540:	e0bffb17 	ldw	r2,-20(fp)
  284544:	1005003a 	cmpeq	r2,r2,zero
  284548:	1000121e 	bne	r2,zero,284594 <fstat+0xa4>
  28454c:	e0bffb17 	ldw	r2,-20(fp)
  284550:	10800017 	ldw	r2,0(r2)
  284554:	10800817 	ldw	r2,32(r2)
  284558:	1005003a 	cmpeq	r2,r2,zero
  28455c:	1000081e 	bne	r2,zero,284580 <fstat+0x90>
  284560:	e0bffb17 	ldw	r2,-20(fp)
  284564:	10800017 	ldw	r2,0(r2)
  284568:	10800817 	ldw	r2,32(r2)
  28456c:	e13ffb17 	ldw	r4,-20(fp)
  284570:	e17ffd17 	ldw	r5,-12(fp)
  284574:	103ee83a 	callr	r2
  284578:	e0bffe15 	stw	r2,-8(fp)
  28457c:	00000b06 	br	2845ac <fstat+0xbc>
  284580:	e0fffd17 	ldw	r3,-12(fp)
  284584:	00880004 	movi	r2,8192
  284588:	18800115 	stw	r2,4(r3)
  28458c:	e03ffe15 	stw	zero,-8(fp)
  284590:	00000606 	br	2845ac <fstat+0xbc>
  284594:	02845c40 	call	2845c4 <alt_get_errno>
  284598:	1007883a 	mov	r3,r2
  28459c:	00801444 	movi	r2,81
  2845a0:	18800015 	stw	r2,0(r3)
  2845a4:	00bfffc4 	movi	r2,-1
  2845a8:	e0bffe15 	stw	r2,-8(fp)
  2845ac:	e0bffe17 	ldw	r2,-8(fp)
  2845b0:	e037883a 	mov	sp,fp
  2845b4:	dfc00117 	ldw	ra,4(sp)
  2845b8:	df000017 	ldw	fp,0(sp)
  2845bc:	dec00204 	addi	sp,sp,8
  2845c0:	f800283a 	ret

002845c4 <alt_get_errno>:
  2845c4:	defffd04 	addi	sp,sp,-12
  2845c8:	dfc00215 	stw	ra,8(sp)
  2845cc:	df000115 	stw	fp,4(sp)
  2845d0:	df000104 	addi	fp,sp,4
  2845d4:	00800a74 	movhi	r2,41
  2845d8:	10ab1804 	addi	r2,r2,-21408
  2845dc:	10800017 	ldw	r2,0(r2)
  2845e0:	1005003a 	cmpeq	r2,r2,zero
  2845e4:	1000061e 	bne	r2,zero,284600 <alt_get_errno+0x3c>
  2845e8:	00800a74 	movhi	r2,41
  2845ec:	10ab1804 	addi	r2,r2,-21408
  2845f0:	10800017 	ldw	r2,0(r2)
  2845f4:	103ee83a 	callr	r2
  2845f8:	e0bfff15 	stw	r2,-4(fp)
  2845fc:	00000306 	br	28460c <alt_get_errno+0x48>
  284600:	00800a74 	movhi	r2,41
  284604:	10b2c704 	addi	r2,r2,-13540
  284608:	e0bfff15 	stw	r2,-4(fp)
  28460c:	e0bfff17 	ldw	r2,-4(fp)
  284610:	e037883a 	mov	sp,fp
  284614:	dfc00117 	ldw	ra,4(sp)
  284618:	df000017 	ldw	fp,0(sp)
  28461c:	dec00204 	addi	sp,sp,8
  284620:	f800283a 	ret

00284624 <alt_irq_register>:
  284624:	deffef04 	addi	sp,sp,-68
  284628:	df001015 	stw	fp,64(sp)
  28462c:	df001004 	addi	fp,sp,64
  284630:	e13ffc15 	stw	r4,-16(fp)
  284634:	e17ffd15 	stw	r5,-12(fp)
  284638:	e1bffe15 	stw	r6,-8(fp)
  28463c:	00bffa84 	movi	r2,-22
  284640:	e0bffb15 	stw	r2,-20(fp)
  284644:	e0bffc17 	ldw	r2,-16(fp)
  284648:	10800828 	cmpgeui	r2,r2,32
  28464c:	1000601e 	bne	r2,zero,2847d0 <alt_irq_register+0x1ac>
  284650:	0005303a 	rdctl	r2,status
  284654:	e0bff915 	stw	r2,-28(fp)
  284658:	e0fff917 	ldw	r3,-28(fp)
  28465c:	00bfff84 	movi	r2,-2
  284660:	1884703a 	and	r2,r3,r2
  284664:	1001703a 	wrctl	status,r2
  284668:	e0bff917 	ldw	r2,-28(fp)
  28466c:	e0bffa15 	stw	r2,-24(fp)
  284670:	e0bffc17 	ldw	r2,-16(fp)
  284674:	00c00a74 	movhi	r3,41
  284678:	18f2d804 	addi	r3,r3,-13472
  28467c:	100490fa 	slli	r2,r2,3
  284680:	10c7883a 	add	r3,r2,r3
  284684:	e0bffe17 	ldw	r2,-8(fp)
  284688:	18800015 	stw	r2,0(r3)
  28468c:	e0bffc17 	ldw	r2,-16(fp)
  284690:	00c00a74 	movhi	r3,41
  284694:	18f2d804 	addi	r3,r3,-13472
  284698:	100490fa 	slli	r2,r2,3
  28469c:	10c5883a 	add	r2,r2,r3
  2846a0:	10c00104 	addi	r3,r2,4
  2846a4:	e0bffd17 	ldw	r2,-12(fp)
  2846a8:	18800015 	stw	r2,0(r3)
  2846ac:	e0bffe17 	ldw	r2,-8(fp)
  2846b0:	1005003a 	cmpeq	r2,r2,zero
  2846b4:	1000201e 	bne	r2,zero,284738 <alt_irq_register+0x114>
  2846b8:	e0bffc17 	ldw	r2,-16(fp)
  2846bc:	e0bff715 	stw	r2,-36(fp)
  2846c0:	0005303a 	rdctl	r2,status
  2846c4:	e0bff615 	stw	r2,-40(fp)
  2846c8:	e0fff617 	ldw	r3,-40(fp)
  2846cc:	00bfff84 	movi	r2,-2
  2846d0:	1884703a 	and	r2,r3,r2
  2846d4:	1001703a 	wrctl	status,r2
  2846d8:	e0bff617 	ldw	r2,-40(fp)
  2846dc:	e0bff815 	stw	r2,-32(fp)
  2846e0:	e0fff717 	ldw	r3,-36(fp)
  2846e4:	00800044 	movi	r2,1
  2846e8:	10c4983a 	sll	r2,r2,r3
  2846ec:	1007883a 	mov	r3,r2
  2846f0:	00800a74 	movhi	r2,41
  2846f4:	10b2c804 	addi	r2,r2,-13536
  2846f8:	10800017 	ldw	r2,0(r2)
  2846fc:	1886b03a 	or	r3,r3,r2
  284700:	00800a74 	movhi	r2,41
  284704:	10b2c804 	addi	r2,r2,-13536
  284708:	10c00015 	stw	r3,0(r2)
  28470c:	00800a74 	movhi	r2,41
  284710:	10b2c804 	addi	r2,r2,-13536
  284714:	10800017 	ldw	r2,0(r2)
  284718:	100170fa 	wrctl	ienable,r2
  28471c:	e0bff817 	ldw	r2,-32(fp)
  284720:	e0bff515 	stw	r2,-44(fp)
  284724:	e0bff517 	ldw	r2,-44(fp)
  284728:	1001703a 	wrctl	status,r2
  28472c:	0005883a 	mov	r2,zero
  284730:	e0bfff15 	stw	r2,-4(fp)
  284734:	00002006 	br	2847b8 <alt_irq_register+0x194>
  284738:	e0bffc17 	ldw	r2,-16(fp)
  28473c:	e0bff315 	stw	r2,-52(fp)
  284740:	0005303a 	rdctl	r2,status
  284744:	e0bff215 	stw	r2,-56(fp)
  284748:	e0fff217 	ldw	r3,-56(fp)
  28474c:	00bfff84 	movi	r2,-2
  284750:	1884703a 	and	r2,r3,r2
  284754:	1001703a 	wrctl	status,r2
  284758:	e0bff217 	ldw	r2,-56(fp)
  28475c:	e0bff415 	stw	r2,-48(fp)
  284760:	e0fff317 	ldw	r3,-52(fp)
  284764:	00800044 	movi	r2,1
  284768:	10c4983a 	sll	r2,r2,r3
  28476c:	0084303a 	nor	r2,zero,r2
  284770:	1007883a 	mov	r3,r2
  284774:	00800a74 	movhi	r2,41
  284778:	10b2c804 	addi	r2,r2,-13536
  28477c:	10800017 	ldw	r2,0(r2)
  284780:	1886703a 	and	r3,r3,r2
  284784:	00800a74 	movhi	r2,41
  284788:	10b2c804 	addi	r2,r2,-13536
  28478c:	10c00015 	stw	r3,0(r2)
  284790:	00800a74 	movhi	r2,41
  284794:	10b2c804 	addi	r2,r2,-13536
  284798:	10800017 	ldw	r2,0(r2)
  28479c:	100170fa 	wrctl	ienable,r2
  2847a0:	e0bff417 	ldw	r2,-48(fp)
  2847a4:	e0bff115 	stw	r2,-60(fp)
  2847a8:	e0bff117 	ldw	r2,-60(fp)
  2847ac:	1001703a 	wrctl	status,r2
  2847b0:	0005883a 	mov	r2,zero
  2847b4:	e0bfff15 	stw	r2,-4(fp)
  2847b8:	e0bfff17 	ldw	r2,-4(fp)
  2847bc:	e0bffb15 	stw	r2,-20(fp)
  2847c0:	e0bffa17 	ldw	r2,-24(fp)
  2847c4:	e0bff015 	stw	r2,-64(fp)
  2847c8:	e0bff017 	ldw	r2,-64(fp)
  2847cc:	1001703a 	wrctl	status,r2
  2847d0:	e0bffb17 	ldw	r2,-20(fp)
  2847d4:	e037883a 	mov	sp,fp
  2847d8:	df000017 	ldw	fp,0(sp)
  2847dc:	dec00104 	addi	sp,sp,4
  2847e0:	f800283a 	ret

002847e4 <isatty>:
  2847e4:	deffeb04 	addi	sp,sp,-84
  2847e8:	dfc01415 	stw	ra,80(sp)
  2847ec:	df001315 	stw	fp,76(sp)
  2847f0:	df001304 	addi	fp,sp,76
  2847f4:	e13ffd15 	stw	r4,-12(fp)
  2847f8:	e0bffd17 	ldw	r2,-12(fp)
  2847fc:	1004803a 	cmplt	r2,r2,zero
  284800:	1000081e 	bne	r2,zero,284824 <isatty+0x40>
  284804:	e0bffd17 	ldw	r2,-12(fp)
  284808:	10800324 	muli	r2,r2,12
  28480c:	1007883a 	mov	r3,r2
  284810:	00800a74 	movhi	r2,41
  284814:	10a63e04 	addi	r2,r2,-26376
  284818:	1887883a 	add	r3,r3,r2
  28481c:	e0ffff15 	stw	r3,-4(fp)
  284820:	00000106 	br	284828 <isatty+0x44>
  284824:	e03fff15 	stw	zero,-4(fp)
  284828:	e0bfff17 	ldw	r2,-4(fp)
  28482c:	e0bfed15 	stw	r2,-76(fp)
  284830:	e0bfed17 	ldw	r2,-76(fp)
  284834:	1005003a 	cmpeq	r2,r2,zero
  284838:	10000f1e 	bne	r2,zero,284878 <isatty+0x94>
  28483c:	e0bfed17 	ldw	r2,-76(fp)
  284840:	10800017 	ldw	r2,0(r2)
  284844:	10800817 	ldw	r2,32(r2)
  284848:	1004c03a 	cmpne	r2,r2,zero
  28484c:	1000031e 	bne	r2,zero,28485c <isatty+0x78>
  284850:	00800044 	movi	r2,1
  284854:	e0bffe15 	stw	r2,-8(fp)
  284858:	00000c06 	br	28488c <isatty+0xa8>
  28485c:	e17fee04 	addi	r5,fp,-72
  284860:	e13ffd17 	ldw	r4,-12(fp)
  284864:	02844f00 	call	2844f0 <fstat>
  284868:	e0bfef17 	ldw	r2,-68(fp)
  28486c:	10880020 	cmpeqi	r2,r2,8192
  284870:	e0bffe15 	stw	r2,-8(fp)
  284874:	00000506 	br	28488c <isatty+0xa8>
  284878:	02848a40 	call	2848a4 <alt_get_errno>
  28487c:	1007883a 	mov	r3,r2
  284880:	00801444 	movi	r2,81
  284884:	18800015 	stw	r2,0(r3)
  284888:	e03ffe15 	stw	zero,-8(fp)
  28488c:	e0bffe17 	ldw	r2,-8(fp)
  284890:	e037883a 	mov	sp,fp
  284894:	dfc00117 	ldw	ra,4(sp)
  284898:	df000017 	ldw	fp,0(sp)
  28489c:	dec00204 	addi	sp,sp,8
  2848a0:	f800283a 	ret

002848a4 <alt_get_errno>:
  2848a4:	defffd04 	addi	sp,sp,-12
  2848a8:	dfc00215 	stw	ra,8(sp)
  2848ac:	df000115 	stw	fp,4(sp)
  2848b0:	df000104 	addi	fp,sp,4
  2848b4:	00800a74 	movhi	r2,41
  2848b8:	10ab1804 	addi	r2,r2,-21408
  2848bc:	10800017 	ldw	r2,0(r2)
  2848c0:	1005003a 	cmpeq	r2,r2,zero
  2848c4:	1000061e 	bne	r2,zero,2848e0 <alt_get_errno+0x3c>
  2848c8:	00800a74 	movhi	r2,41
  2848cc:	10ab1804 	addi	r2,r2,-21408
  2848d0:	10800017 	ldw	r2,0(r2)
  2848d4:	103ee83a 	callr	r2
  2848d8:	e0bfff15 	stw	r2,-4(fp)
  2848dc:	00000306 	br	2848ec <alt_get_errno+0x48>
  2848e0:	00800a74 	movhi	r2,41
  2848e4:	10b2c704 	addi	r2,r2,-13540
  2848e8:	e0bfff15 	stw	r2,-4(fp)
  2848ec:	e0bfff17 	ldw	r2,-4(fp)
  2848f0:	e037883a 	mov	sp,fp
  2848f4:	dfc00117 	ldw	ra,4(sp)
  2848f8:	df000017 	ldw	fp,0(sp)
  2848fc:	dec00204 	addi	sp,sp,8
  284900:	f800283a 	ret

00284904 <alt_load>:
  284904:	defffe04 	addi	sp,sp,-8
  284908:	dfc00115 	stw	ra,4(sp)
  28490c:	df000015 	stw	fp,0(sp)
  284910:	d839883a 	mov	fp,sp
  284914:	01000a74 	movhi	r4,41
  284918:	212b1d04 	addi	r4,r4,-21388
  28491c:	01400a74 	movhi	r5,41
  284920:	29637f04 	addi	r5,r5,-29188
  284924:	01800a74 	movhi	r6,41
  284928:	31ab1d04 	addi	r6,r6,-21388
  28492c:	02849840 	call	284984 <alt_load_section>
  284930:	01000a34 	movhi	r4,40
  284934:	21000804 	addi	r4,r4,32
  284938:	01400a34 	movhi	r5,40
  28493c:	29400804 	addi	r5,r5,32
  284940:	01800a34 	movhi	r6,40
  284944:	31806e04 	addi	r6,r6,440
  284948:	02849840 	call	284984 <alt_load_section>
  28494c:	01000a74 	movhi	r4,41
  284950:	21227204 	addi	r4,r4,-30264
  284954:	01400a74 	movhi	r5,41
  284958:	29627204 	addi	r5,r5,-30264
  28495c:	01800a74 	movhi	r6,41
  284960:	31a37f04 	addi	r6,r6,-29188
  284964:	02849840 	call	284984 <alt_load_section>
  284968:	0287aac0 	call	287aac <alt_dcache_flush_all>
  28496c:	0287ca40 	call	287ca4 <alt_icache_flush_all>
  284970:	e037883a 	mov	sp,fp
  284974:	dfc00117 	ldw	ra,4(sp)
  284978:	df000017 	ldw	fp,0(sp)
  28497c:	dec00204 	addi	sp,sp,8
  284980:	f800283a 	ret

00284984 <alt_load_section>:
  284984:	defffc04 	addi	sp,sp,-16
  284988:	df000315 	stw	fp,12(sp)
  28498c:	df000304 	addi	fp,sp,12
  284990:	e13ffd15 	stw	r4,-12(fp)
  284994:	e17ffe15 	stw	r5,-8(fp)
  284998:	e1bfff15 	stw	r6,-4(fp)
  28499c:	e0fffe17 	ldw	r3,-8(fp)
  2849a0:	e0bffd17 	ldw	r2,-12(fp)
  2849a4:	18800e26 	beq	r3,r2,2849e0 <alt_load_section+0x5c>
  2849a8:	00000a06 	br	2849d4 <alt_load_section+0x50>
  2849ac:	e0bffd17 	ldw	r2,-12(fp)
  2849b0:	10c00017 	ldw	r3,0(r2)
  2849b4:	e0bffe17 	ldw	r2,-8(fp)
  2849b8:	10c00015 	stw	r3,0(r2)
  2849bc:	e0bffe17 	ldw	r2,-8(fp)
  2849c0:	10800104 	addi	r2,r2,4
  2849c4:	e0bffe15 	stw	r2,-8(fp)
  2849c8:	e0bffd17 	ldw	r2,-12(fp)
  2849cc:	10800104 	addi	r2,r2,4
  2849d0:	e0bffd15 	stw	r2,-12(fp)
  2849d4:	e0fffe17 	ldw	r3,-8(fp)
  2849d8:	e0bfff17 	ldw	r2,-4(fp)
  2849dc:	18bff31e 	bne	r3,r2,2849ac <alt_load_section+0x28>
  2849e0:	e037883a 	mov	sp,fp
  2849e4:	df000017 	ldw	fp,0(sp)
  2849e8:	dec00104 	addi	sp,sp,4
  2849ec:	f800283a 	ret

002849f0 <lseek>:
  2849f0:	defff804 	addi	sp,sp,-32
  2849f4:	dfc00715 	stw	ra,28(sp)
  2849f8:	df000615 	stw	fp,24(sp)
  2849fc:	df000604 	addi	fp,sp,24
  284a00:	e13ffc15 	stw	r4,-16(fp)
  284a04:	e17ffd15 	stw	r5,-12(fp)
  284a08:	e1bffe15 	stw	r6,-8(fp)
  284a0c:	e03ffa15 	stw	zero,-24(fp)
  284a10:	e0bffc17 	ldw	r2,-16(fp)
  284a14:	1004803a 	cmplt	r2,r2,zero
  284a18:	1000081e 	bne	r2,zero,284a3c <lseek+0x4c>
  284a1c:	e0bffc17 	ldw	r2,-16(fp)
  284a20:	10800324 	muli	r2,r2,12
  284a24:	1007883a 	mov	r3,r2
  284a28:	00800a74 	movhi	r2,41
  284a2c:	10a63e04 	addi	r2,r2,-26376
  284a30:	1887883a 	add	r3,r3,r2
  284a34:	e0ffff15 	stw	r3,-4(fp)
  284a38:	00000106 	br	284a40 <lseek+0x50>
  284a3c:	e03fff15 	stw	zero,-4(fp)
  284a40:	e0bfff17 	ldw	r2,-4(fp)
  284a44:	e0bffb15 	stw	r2,-20(fp)
  284a48:	e0bffb17 	ldw	r2,-20(fp)
  284a4c:	1005003a 	cmpeq	r2,r2,zero
  284a50:	1000111e 	bne	r2,zero,284a98 <lseek+0xa8>
  284a54:	e0bffb17 	ldw	r2,-20(fp)
  284a58:	10800017 	ldw	r2,0(r2)
  284a5c:	10800717 	ldw	r2,28(r2)
  284a60:	1005003a 	cmpeq	r2,r2,zero
  284a64:	1000091e 	bne	r2,zero,284a8c <lseek+0x9c>
  284a68:	e0bffb17 	ldw	r2,-20(fp)
  284a6c:	10800017 	ldw	r2,0(r2)
  284a70:	10800717 	ldw	r2,28(r2)
  284a74:	e13ffb17 	ldw	r4,-20(fp)
  284a78:	e17ffd17 	ldw	r5,-12(fp)
  284a7c:	e1bffe17 	ldw	r6,-8(fp)
  284a80:	103ee83a 	callr	r2
  284a84:	e0bffa15 	stw	r2,-24(fp)
  284a88:	00000506 	br	284aa0 <lseek+0xb0>
  284a8c:	00bfde84 	movi	r2,-134
  284a90:	e0bffa15 	stw	r2,-24(fp)
  284a94:	00000206 	br	284aa0 <lseek+0xb0>
  284a98:	00bfebc4 	movi	r2,-81
  284a9c:	e0bffa15 	stw	r2,-24(fp)
  284aa0:	e0bffa17 	ldw	r2,-24(fp)
  284aa4:	1004403a 	cmpge	r2,r2,zero
  284aa8:	1000071e 	bne	r2,zero,284ac8 <lseek+0xd8>
  284aac:	0284ae00 	call	284ae0 <alt_get_errno>
  284ab0:	1007883a 	mov	r3,r2
  284ab4:	e0bffa17 	ldw	r2,-24(fp)
  284ab8:	0085c83a 	sub	r2,zero,r2
  284abc:	18800015 	stw	r2,0(r3)
  284ac0:	00bfffc4 	movi	r2,-1
  284ac4:	e0bffa15 	stw	r2,-24(fp)
  284ac8:	e0bffa17 	ldw	r2,-24(fp)
  284acc:	e037883a 	mov	sp,fp
  284ad0:	dfc00117 	ldw	ra,4(sp)
  284ad4:	df000017 	ldw	fp,0(sp)
  284ad8:	dec00204 	addi	sp,sp,8
  284adc:	f800283a 	ret

00284ae0 <alt_get_errno>:
  284ae0:	defffd04 	addi	sp,sp,-12
  284ae4:	dfc00215 	stw	ra,8(sp)
  284ae8:	df000115 	stw	fp,4(sp)
  284aec:	df000104 	addi	fp,sp,4
  284af0:	00800a74 	movhi	r2,41
  284af4:	10ab1804 	addi	r2,r2,-21408
  284af8:	10800017 	ldw	r2,0(r2)
  284afc:	1005003a 	cmpeq	r2,r2,zero
  284b00:	1000061e 	bne	r2,zero,284b1c <alt_get_errno+0x3c>
  284b04:	00800a74 	movhi	r2,41
  284b08:	10ab1804 	addi	r2,r2,-21408
  284b0c:	10800017 	ldw	r2,0(r2)
  284b10:	103ee83a 	callr	r2
  284b14:	e0bfff15 	stw	r2,-4(fp)
  284b18:	00000306 	br	284b28 <alt_get_errno+0x48>
  284b1c:	00800a74 	movhi	r2,41
  284b20:	10b2c704 	addi	r2,r2,-13540
  284b24:	e0bfff15 	stw	r2,-4(fp)
  284b28:	e0bfff17 	ldw	r2,-4(fp)
  284b2c:	e037883a 	mov	sp,fp
  284b30:	dfc00117 	ldw	ra,4(sp)
  284b34:	df000017 	ldw	fp,0(sp)
  284b38:	dec00204 	addi	sp,sp,8
  284b3c:	f800283a 	ret

00284b40 <alt_main>:
  284b40:	defffd04 	addi	sp,sp,-12
  284b44:	dfc00215 	stw	ra,8(sp)
  284b48:	df000115 	stw	fp,4(sp)
  284b4c:	df000104 	addi	fp,sp,4
  284b50:	0009883a 	mov	r4,zero
  284b54:	02852a00 	call	2852a0 <alt_irq_init>
  284b58:	02852d40 	call	2852d4 <alt_sys_init>
  284b5c:	01000a74 	movhi	r4,41
  284b60:	21235004 	addi	r4,r4,-29376
  284b64:	01400a74 	movhi	r5,41
  284b68:	29635004 	addi	r5,r5,-29376
  284b6c:	01800a74 	movhi	r6,41
  284b70:	31a35004 	addi	r6,r6,-29376
  284b74:	0287d980 	call	287d98 <alt_io_redirect>
  284b78:	0287bdc0 	call	287bdc <_do_ctors>
  284b7c:	01000a34 	movhi	r4,40
  284b80:	211f1004 	addi	r4,r4,31808
  284b84:	02885000 	call	288500 <atexit>
  284b88:	d127bb17 	ldw	r4,-24852(gp)
  284b8c:	d167bc17 	ldw	r5,-24848(gp)
  284b90:	d1a7bd17 	ldw	r6,-24844(gp)
  284b94:	0280f440 	call	280f44 <main>
  284b98:	e0bfff15 	stw	r2,-4(fp)
  284b9c:	01000044 	movi	r4,1
  284ba0:	02842d40 	call	2842d4 <close>
  284ba4:	e13fff17 	ldw	r4,-4(fp)
  284ba8:	02885140 	call	288514 <exit>

00284bac <__malloc_lock>:
  284bac:	defffe04 	addi	sp,sp,-8
  284bb0:	df000115 	stw	fp,4(sp)
  284bb4:	df000104 	addi	fp,sp,4
  284bb8:	e13fff15 	stw	r4,-4(fp)
  284bbc:	e037883a 	mov	sp,fp
  284bc0:	df000017 	ldw	fp,0(sp)
  284bc4:	dec00104 	addi	sp,sp,4
  284bc8:	f800283a 	ret

00284bcc <__malloc_unlock>:
  284bcc:	defffe04 	addi	sp,sp,-8
  284bd0:	df000115 	stw	fp,4(sp)
  284bd4:	df000104 	addi	fp,sp,4
  284bd8:	e13fff15 	stw	r4,-4(fp)
  284bdc:	e037883a 	mov	sp,fp
  284be0:	df000017 	ldw	fp,0(sp)
  284be4:	dec00104 	addi	sp,sp,4
  284be8:	f800283a 	ret

00284bec <alt_printf>:
  284bec:	defff204 	addi	sp,sp,-56
  284bf0:	dfc00a15 	stw	ra,40(sp)
  284bf4:	df000915 	stw	fp,36(sp)
  284bf8:	df000904 	addi	fp,sp,36
  284bfc:	e1400215 	stw	r5,8(fp)
  284c00:	e1800315 	stw	r6,12(fp)
  284c04:	e1c00415 	stw	r7,16(fp)
  284c08:	e13fff15 	stw	r4,-4(fp)
  284c0c:	e0800204 	addi	r2,fp,8
  284c10:	e0bffe15 	stw	r2,-8(fp)
  284c14:	e0bfff17 	ldw	r2,-4(fp)
  284c18:	e0bffd15 	stw	r2,-12(fp)
  284c1c:	00007806 	br	284e00 <alt_printf+0x214>
  284c20:	e0bffc07 	ldb	r2,-16(fp)
  284c24:	10800960 	cmpeqi	r2,r2,37
  284c28:	1000031e 	bne	r2,zero,284c38 <alt_printf+0x4c>
  284c2c:	e13ffc07 	ldb	r4,-16(fp)
  284c30:	0284e440 	call	284e44 <alt_putchar>
  284c34:	00007206 	br	284e00 <alt_printf+0x214>
  284c38:	e0bffd17 	ldw	r2,-12(fp)
  284c3c:	10800003 	ldbu	r2,0(r2)
  284c40:	e0bffc05 	stb	r2,-16(fp)
  284c44:	e0bffc07 	ldb	r2,-16(fp)
  284c48:	1004c03a 	cmpne	r2,r2,zero
  284c4c:	1007883a 	mov	r3,r2
  284c50:	e0bffd17 	ldw	r2,-12(fp)
  284c54:	10800044 	addi	r2,r2,1
  284c58:	e0bffd15 	stw	r2,-12(fp)
  284c5c:	18803fcc 	andi	r2,r3,255
  284c60:	1005003a 	cmpeq	r2,r2,zero
  284c64:	1000721e 	bne	r2,zero,284e30 <alt_printf+0x244>
  284c68:	e0bffc07 	ldb	r2,-16(fp)
  284c6c:	10800958 	cmpnei	r2,r2,37
  284c70:	1000031e 	bne	r2,zero,284c80 <alt_printf+0x94>
  284c74:	e13ffc07 	ldb	r4,-16(fp)
  284c78:	0284e440 	call	284e44 <alt_putchar>
  284c7c:	00006006 	br	284e00 <alt_printf+0x214>
  284c80:	e0bffc07 	ldb	r2,-16(fp)
  284c84:	108018d8 	cmpnei	r2,r2,99
  284c88:	1000091e 	bne	r2,zero,284cb0 <alt_printf+0xc4>
  284c8c:	e0fffe17 	ldw	r3,-8(fp)
  284c90:	18800104 	addi	r2,r3,4
  284c94:	e0bffe15 	stw	r2,-8(fp)
  284c98:	1805883a 	mov	r2,r3
  284c9c:	10800017 	ldw	r2,0(r2)
  284ca0:	e0bffb15 	stw	r2,-20(fp)
  284ca4:	e13ffb17 	ldw	r4,-20(fp)
  284ca8:	0284e440 	call	284e44 <alt_putchar>
  284cac:	00005406 	br	284e00 <alt_printf+0x214>
  284cb0:	e0bffc07 	ldb	r2,-16(fp)
  284cb4:	10801e18 	cmpnei	r2,r2,120
  284cb8:	1000371e 	bne	r2,zero,284d98 <alt_printf+0x1ac>
  284cbc:	e0fffe17 	ldw	r3,-8(fp)
  284cc0:	18800104 	addi	r2,r3,4
  284cc4:	e0bffe15 	stw	r2,-8(fp)
  284cc8:	1805883a 	mov	r2,r3
  284ccc:	10800017 	ldw	r2,0(r2)
  284cd0:	e0bffa15 	stw	r2,-24(fp)
  284cd4:	e0bffa17 	ldw	r2,-24(fp)
  284cd8:	1004c03a 	cmpne	r2,r2,zero
  284cdc:	1000031e 	bne	r2,zero,284cec <alt_printf+0x100>
  284ce0:	01000c04 	movi	r4,48
  284ce4:	0284e440 	call	284e44 <alt_putchar>
  284ce8:	00004506 	br	284e00 <alt_printf+0x214>
  284cec:	00800704 	movi	r2,28
  284cf0:	e0bff815 	stw	r2,-32(fp)
  284cf4:	00000306 	br	284d04 <alt_printf+0x118>
  284cf8:	e0bff817 	ldw	r2,-32(fp)
  284cfc:	10bfff04 	addi	r2,r2,-4
  284d00:	e0bff815 	stw	r2,-32(fp)
  284d04:	00c003c4 	movi	r3,15
  284d08:	e0bff817 	ldw	r2,-32(fp)
  284d0c:	1884983a 	sll	r2,r3,r2
  284d10:	1007883a 	mov	r3,r2
  284d14:	e0bffa17 	ldw	r2,-24(fp)
  284d18:	1884703a 	and	r2,r3,r2
  284d1c:	1005003a 	cmpeq	r2,r2,zero
  284d20:	103ff51e 	bne	r2,zero,284cf8 <alt_printf+0x10c>
  284d24:	00001806 	br	284d88 <alt_printf+0x19c>
  284d28:	00c003c4 	movi	r3,15
  284d2c:	e0bff817 	ldw	r2,-32(fp)
  284d30:	1884983a 	sll	r2,r3,r2
  284d34:	1007883a 	mov	r3,r2
  284d38:	e0bffa17 	ldw	r2,-24(fp)
  284d3c:	1886703a 	and	r3,r3,r2
  284d40:	e0bff817 	ldw	r2,-32(fp)
  284d44:	1884d83a 	srl	r2,r3,r2
  284d48:	e0bff915 	stw	r2,-28(fp)
  284d4c:	e0bff917 	ldw	r2,-28(fp)
  284d50:	108002a8 	cmpgeui	r2,r2,10
  284d54:	1000041e 	bne	r2,zero,284d68 <alt_printf+0x17c>
  284d58:	e0bff917 	ldw	r2,-28(fp)
  284d5c:	10800c04 	addi	r2,r2,48
  284d60:	e0bffc05 	stb	r2,-16(fp)
  284d64:	00000306 	br	284d74 <alt_printf+0x188>
  284d68:	e0bff917 	ldw	r2,-28(fp)
  284d6c:	108015c4 	addi	r2,r2,87
  284d70:	e0bffc05 	stb	r2,-16(fp)
  284d74:	e13ffc07 	ldb	r4,-16(fp)
  284d78:	0284e440 	call	284e44 <alt_putchar>
  284d7c:	e0bff817 	ldw	r2,-32(fp)
  284d80:	10bfff04 	addi	r2,r2,-4
  284d84:	e0bff815 	stw	r2,-32(fp)
  284d88:	e0bff817 	ldw	r2,-32(fp)
  284d8c:	1004403a 	cmpge	r2,r2,zero
  284d90:	103fe51e 	bne	r2,zero,284d28 <alt_printf+0x13c>
  284d94:	00001a06 	br	284e00 <alt_printf+0x214>
  284d98:	e0bffc07 	ldb	r2,-16(fp)
  284d9c:	10801cd8 	cmpnei	r2,r2,115
  284da0:	1000171e 	bne	r2,zero,284e00 <alt_printf+0x214>
  284da4:	e0fffe17 	ldw	r3,-8(fp)
  284da8:	18800104 	addi	r2,r3,4
  284dac:	e0bffe15 	stw	r2,-8(fp)
  284db0:	1805883a 	mov	r2,r3
  284db4:	10800017 	ldw	r2,0(r2)
  284db8:	e0bff715 	stw	r2,-36(fp)
  284dbc:	00000906 	br	284de4 <alt_printf+0x1f8>
  284dc0:	e0bff717 	ldw	r2,-36(fp)
  284dc4:	10800003 	ldbu	r2,0(r2)
  284dc8:	11003fcc 	andi	r4,r2,255
  284dcc:	2100201c 	xori	r4,r4,128
  284dd0:	213fe004 	addi	r4,r4,-128
  284dd4:	e0bff717 	ldw	r2,-36(fp)
  284dd8:	10800044 	addi	r2,r2,1
  284ddc:	e0bff715 	stw	r2,-36(fp)
  284de0:	0284e440 	call	284e44 <alt_putchar>
  284de4:	e0bff717 	ldw	r2,-36(fp)
  284de8:	10800003 	ldbu	r2,0(r2)
  284dec:	10803fcc 	andi	r2,r2,255
  284df0:	1080201c 	xori	r2,r2,128
  284df4:	10bfe004 	addi	r2,r2,-128
  284df8:	1004c03a 	cmpne	r2,r2,zero
  284dfc:	103ff01e 	bne	r2,zero,284dc0 <alt_printf+0x1d4>
  284e00:	e0bffd17 	ldw	r2,-12(fp)
  284e04:	10800003 	ldbu	r2,0(r2)
  284e08:	e0bffc05 	stb	r2,-16(fp)
  284e0c:	e0bffc07 	ldb	r2,-16(fp)
  284e10:	1004c03a 	cmpne	r2,r2,zero
  284e14:	1007883a 	mov	r3,r2
  284e18:	e0bffd17 	ldw	r2,-12(fp)
  284e1c:	10800044 	addi	r2,r2,1
  284e20:	e0bffd15 	stw	r2,-12(fp)
  284e24:	18803fcc 	andi	r2,r3,255
  284e28:	1004c03a 	cmpne	r2,r2,zero
  284e2c:	103f7c1e 	bne	r2,zero,284c20 <alt_printf+0x34>
  284e30:	e037883a 	mov	sp,fp
  284e34:	dfc00117 	ldw	ra,4(sp)
  284e38:	df000017 	ldw	fp,0(sp)
  284e3c:	dec00504 	addi	sp,sp,20
  284e40:	f800283a 	ret

00284e44 <alt_putchar>:
  284e44:	defffd04 	addi	sp,sp,-12
  284e48:	dfc00215 	stw	ra,8(sp)
  284e4c:	df000115 	stw	fp,4(sp)
  284e50:	df000104 	addi	fp,sp,4
  284e54:	e13fff15 	stw	r4,-4(fp)
  284e58:	00800a74 	movhi	r2,41
  284e5c:	10ab1104 	addi	r2,r2,-21436
  284e60:	10800017 	ldw	r2,0(r2)
  284e64:	11400217 	ldw	r5,8(r2)
  284e68:	e13fff17 	ldw	r4,-4(fp)
  284e6c:	0282aa40 	call	282aa4 <putc>
  284e70:	e037883a 	mov	sp,fp
  284e74:	dfc00117 	ldw	ra,4(sp)
  284e78:	df000017 	ldw	fp,0(sp)
  284e7c:	dec00204 	addi	sp,sp,8
  284e80:	f800283a 	ret

00284e84 <read>:
  284e84:	defff704 	addi	sp,sp,-36
  284e88:	dfc00815 	stw	ra,32(sp)
  284e8c:	df000715 	stw	fp,28(sp)
  284e90:	df000704 	addi	fp,sp,28
  284e94:	e13ffb15 	stw	r4,-20(fp)
  284e98:	e17ffc15 	stw	r5,-16(fp)
  284e9c:	e1bffd15 	stw	r6,-12(fp)
  284ea0:	e0bffb17 	ldw	r2,-20(fp)
  284ea4:	1004803a 	cmplt	r2,r2,zero
  284ea8:	1000081e 	bne	r2,zero,284ecc <read+0x48>
  284eac:	e0bffb17 	ldw	r2,-20(fp)
  284eb0:	10800324 	muli	r2,r2,12
  284eb4:	1007883a 	mov	r3,r2
  284eb8:	00800a74 	movhi	r2,41
  284ebc:	10a63e04 	addi	r2,r2,-26376
  284ec0:	1887883a 	add	r3,r3,r2
  284ec4:	e0ffff15 	stw	r3,-4(fp)
  284ec8:	00000106 	br	284ed0 <read+0x4c>
  284ecc:	e03fff15 	stw	zero,-4(fp)
  284ed0:	e0bfff17 	ldw	r2,-4(fp)
  284ed4:	e0bffa15 	stw	r2,-24(fp)
  284ed8:	e0bffa17 	ldw	r2,-24(fp)
  284edc:	1005003a 	cmpeq	r2,r2,zero
  284ee0:	1000241e 	bne	r2,zero,284f74 <read+0xf0>
  284ee4:	e0bffa17 	ldw	r2,-24(fp)
  284ee8:	10800217 	ldw	r2,8(r2)
  284eec:	108000cc 	andi	r2,r2,3
  284ef0:	10800060 	cmpeqi	r2,r2,1
  284ef4:	10001a1e 	bne	r2,zero,284f60 <read+0xdc>
  284ef8:	e0bffa17 	ldw	r2,-24(fp)
  284efc:	10800017 	ldw	r2,0(r2)
  284f00:	10800517 	ldw	r2,20(r2)
  284f04:	1005003a 	cmpeq	r2,r2,zero
  284f08:	1000151e 	bne	r2,zero,284f60 <read+0xdc>
  284f0c:	e0bffa17 	ldw	r2,-24(fp)
  284f10:	10800017 	ldw	r2,0(r2)
  284f14:	10800517 	ldw	r2,20(r2)
  284f18:	e17ffc17 	ldw	r5,-16(fp)
  284f1c:	e1bffd17 	ldw	r6,-12(fp)
  284f20:	e13ffa17 	ldw	r4,-24(fp)
  284f24:	103ee83a 	callr	r2
  284f28:	e0bff915 	stw	r2,-28(fp)
  284f2c:	e0bff917 	ldw	r2,-28(fp)
  284f30:	1004403a 	cmpge	r2,r2,zero
  284f34:	1000071e 	bne	r2,zero,284f54 <read+0xd0>
  284f38:	0284fa40 	call	284fa4 <alt_get_errno>
  284f3c:	e0fff917 	ldw	r3,-28(fp)
  284f40:	00c7c83a 	sub	r3,zero,r3
  284f44:	10c00015 	stw	r3,0(r2)
  284f48:	00bfffc4 	movi	r2,-1
  284f4c:	e0bffe15 	stw	r2,-8(fp)
  284f50:	00000e06 	br	284f8c <read+0x108>
  284f54:	e0bff917 	ldw	r2,-28(fp)
  284f58:	e0bffe15 	stw	r2,-8(fp)
  284f5c:	00000b06 	br	284f8c <read+0x108>
  284f60:	0284fa40 	call	284fa4 <alt_get_errno>
  284f64:	1007883a 	mov	r3,r2
  284f68:	00800344 	movi	r2,13
  284f6c:	18800015 	stw	r2,0(r3)
  284f70:	00000406 	br	284f84 <read+0x100>
  284f74:	0284fa40 	call	284fa4 <alt_get_errno>
  284f78:	1007883a 	mov	r3,r2
  284f7c:	00801444 	movi	r2,81
  284f80:	18800015 	stw	r2,0(r3)
  284f84:	00bfffc4 	movi	r2,-1
  284f88:	e0bffe15 	stw	r2,-8(fp)
  284f8c:	e0bffe17 	ldw	r2,-8(fp)
  284f90:	e037883a 	mov	sp,fp
  284f94:	dfc00117 	ldw	ra,4(sp)
  284f98:	df000017 	ldw	fp,0(sp)
  284f9c:	dec00204 	addi	sp,sp,8
  284fa0:	f800283a 	ret

00284fa4 <alt_get_errno>:
  284fa4:	defffd04 	addi	sp,sp,-12
  284fa8:	dfc00215 	stw	ra,8(sp)
  284fac:	df000115 	stw	fp,4(sp)
  284fb0:	df000104 	addi	fp,sp,4
  284fb4:	00800a74 	movhi	r2,41
  284fb8:	10ab1804 	addi	r2,r2,-21408
  284fbc:	10800017 	ldw	r2,0(r2)
  284fc0:	1005003a 	cmpeq	r2,r2,zero
  284fc4:	1000061e 	bne	r2,zero,284fe0 <alt_get_errno+0x3c>
  284fc8:	00800a74 	movhi	r2,41
  284fcc:	10ab1804 	addi	r2,r2,-21408
  284fd0:	10800017 	ldw	r2,0(r2)
  284fd4:	103ee83a 	callr	r2
  284fd8:	e0bfff15 	stw	r2,-4(fp)
  284fdc:	00000306 	br	284fec <alt_get_errno+0x48>
  284fe0:	00800a74 	movhi	r2,41
  284fe4:	10b2c704 	addi	r2,r2,-13540
  284fe8:	e0bfff15 	stw	r2,-4(fp)
  284fec:	e0bfff17 	ldw	r2,-4(fp)
  284ff0:	e037883a 	mov	sp,fp
  284ff4:	dfc00117 	ldw	ra,4(sp)
  284ff8:	df000017 	ldw	fp,0(sp)
  284ffc:	dec00204 	addi	sp,sp,8
  285000:	f800283a 	ret

00285004 <alt_release_fd>:
  285004:	defffe04 	addi	sp,sp,-8
  285008:	df000115 	stw	fp,4(sp)
  28500c:	df000104 	addi	fp,sp,4
  285010:	e13fff15 	stw	r4,-4(fp)
  285014:	e0bfff17 	ldw	r2,-4(fp)
  285018:	108000d0 	cmplti	r2,r2,3
  28501c:	10000d1e 	bne	r2,zero,285054 <alt_release_fd+0x50>
  285020:	e0bfff17 	ldw	r2,-4(fp)
  285024:	00c00a74 	movhi	r3,41
  285028:	18e63e04 	addi	r3,r3,-26376
  28502c:	10800324 	muli	r2,r2,12
  285030:	10c5883a 	add	r2,r2,r3
  285034:	10800204 	addi	r2,r2,8
  285038:	10000015 	stw	zero,0(r2)
  28503c:	e0bfff17 	ldw	r2,-4(fp)
  285040:	00c00a74 	movhi	r3,41
  285044:	18e63e04 	addi	r3,r3,-26376
  285048:	10800324 	muli	r2,r2,12
  28504c:	10c5883a 	add	r2,r2,r3
  285050:	10000015 	stw	zero,0(r2)
  285054:	e037883a 	mov	sp,fp
  285058:	df000017 	ldw	fp,0(sp)
  28505c:	dec00104 	addi	sp,sp,4
  285060:	f800283a 	ret

00285064 <sbrk>:
  285064:	defff804 	addi	sp,sp,-32
  285068:	df000715 	stw	fp,28(sp)
  28506c:	df000704 	addi	fp,sp,28
  285070:	e13ffe15 	stw	r4,-8(fp)
  285074:	0005303a 	rdctl	r2,status
  285078:	e0bffb15 	stw	r2,-20(fp)
  28507c:	e0fffb17 	ldw	r3,-20(fp)
  285080:	00bfff84 	movi	r2,-2
  285084:	1884703a 	and	r2,r3,r2
  285088:	1001703a 	wrctl	status,r2
  28508c:	e0bffb17 	ldw	r2,-20(fp)
  285090:	e0bffd15 	stw	r2,-12(fp)
  285094:	d0a00c17 	ldw	r2,-32720(gp)
  285098:	10c000c4 	addi	r3,r2,3
  28509c:	00bfff04 	movi	r2,-4
  2850a0:	1884703a 	and	r2,r3,r2
  2850a4:	d0a00c15 	stw	r2,-32720(gp)
  2850a8:	d0e00c17 	ldw	r3,-32720(gp)
  2850ac:	e0bffe17 	ldw	r2,-8(fp)
  2850b0:	1887883a 	add	r3,r3,r2
  2850b4:	00800b74 	movhi	r2,45
  2850b8:	10ac0004 	addi	r2,r2,-20480
  2850bc:	10c0072e 	bgeu	r2,r3,2850dc <sbrk+0x78>
  2850c0:	e0bffd17 	ldw	r2,-12(fp)
  2850c4:	e0bffa15 	stw	r2,-24(fp)
  2850c8:	e0bffa17 	ldw	r2,-24(fp)
  2850cc:	1001703a 	wrctl	status,r2
  2850d0:	00bfffc4 	movi	r2,-1
  2850d4:	e0bfff15 	stw	r2,-4(fp)
  2850d8:	00000c06 	br	28510c <sbrk+0xa8>
  2850dc:	d0a00c17 	ldw	r2,-32720(gp)
  2850e0:	e0bffc15 	stw	r2,-16(fp)
  2850e4:	d0e00c17 	ldw	r3,-32720(gp)
  2850e8:	e0bffe17 	ldw	r2,-8(fp)
  2850ec:	1885883a 	add	r2,r3,r2
  2850f0:	d0a00c15 	stw	r2,-32720(gp)
  2850f4:	e0bffd17 	ldw	r2,-12(fp)
  2850f8:	e0bff915 	stw	r2,-28(fp)
  2850fc:	e0bff917 	ldw	r2,-28(fp)
  285100:	1001703a 	wrctl	status,r2
  285104:	e0bffc17 	ldw	r2,-16(fp)
  285108:	e0bfff15 	stw	r2,-4(fp)
  28510c:	e0bfff17 	ldw	r2,-4(fp)
  285110:	e037883a 	mov	sp,fp
  285114:	df000017 	ldw	fp,0(sp)
  285118:	dec00104 	addi	sp,sp,4
  28511c:	f800283a 	ret

00285120 <write>:
  285120:	defff704 	addi	sp,sp,-36
  285124:	dfc00815 	stw	ra,32(sp)
  285128:	df000715 	stw	fp,28(sp)
  28512c:	df000704 	addi	fp,sp,28
  285130:	e13ffb15 	stw	r4,-20(fp)
  285134:	e17ffc15 	stw	r5,-16(fp)
  285138:	e1bffd15 	stw	r6,-12(fp)
  28513c:	e0bffb17 	ldw	r2,-20(fp)
  285140:	1004803a 	cmplt	r2,r2,zero
  285144:	1000081e 	bne	r2,zero,285168 <write+0x48>
  285148:	e0bffb17 	ldw	r2,-20(fp)
  28514c:	10800324 	muli	r2,r2,12
  285150:	1007883a 	mov	r3,r2
  285154:	00800a74 	movhi	r2,41
  285158:	10a63e04 	addi	r2,r2,-26376
  28515c:	1887883a 	add	r3,r3,r2
  285160:	e0ffff15 	stw	r3,-4(fp)
  285164:	00000106 	br	28516c <write+0x4c>
  285168:	e03fff15 	stw	zero,-4(fp)
  28516c:	e0bfff17 	ldw	r2,-4(fp)
  285170:	e0bffa15 	stw	r2,-24(fp)
  285174:	e0bffa17 	ldw	r2,-24(fp)
  285178:	1005003a 	cmpeq	r2,r2,zero
  28517c:	1000241e 	bne	r2,zero,285210 <write+0xf0>
  285180:	e0bffa17 	ldw	r2,-24(fp)
  285184:	10800217 	ldw	r2,8(r2)
  285188:	108000cc 	andi	r2,r2,3
  28518c:	1005003a 	cmpeq	r2,r2,zero
  285190:	10001a1e 	bne	r2,zero,2851fc <write+0xdc>
  285194:	e0bffa17 	ldw	r2,-24(fp)
  285198:	10800017 	ldw	r2,0(r2)
  28519c:	10800617 	ldw	r2,24(r2)
  2851a0:	1005003a 	cmpeq	r2,r2,zero
  2851a4:	1000151e 	bne	r2,zero,2851fc <write+0xdc>
  2851a8:	e0bffa17 	ldw	r2,-24(fp)
  2851ac:	10800017 	ldw	r2,0(r2)
  2851b0:	10800617 	ldw	r2,24(r2)
  2851b4:	e17ffc17 	ldw	r5,-16(fp)
  2851b8:	e1bffd17 	ldw	r6,-12(fp)
  2851bc:	e13ffa17 	ldw	r4,-24(fp)
  2851c0:	103ee83a 	callr	r2
  2851c4:	e0bff915 	stw	r2,-28(fp)
  2851c8:	e0bff917 	ldw	r2,-28(fp)
  2851cc:	1004403a 	cmpge	r2,r2,zero
  2851d0:	1000071e 	bne	r2,zero,2851f0 <write+0xd0>
  2851d4:	02852400 	call	285240 <alt_get_errno>
  2851d8:	e0fff917 	ldw	r3,-28(fp)
  2851dc:	00c7c83a 	sub	r3,zero,r3
  2851e0:	10c00015 	stw	r3,0(r2)
  2851e4:	00bfffc4 	movi	r2,-1
  2851e8:	e0bffe15 	stw	r2,-8(fp)
  2851ec:	00000e06 	br	285228 <write+0x108>
  2851f0:	e0bff917 	ldw	r2,-28(fp)
  2851f4:	e0bffe15 	stw	r2,-8(fp)
  2851f8:	00000b06 	br	285228 <write+0x108>
  2851fc:	02852400 	call	285240 <alt_get_errno>
  285200:	1007883a 	mov	r3,r2
  285204:	00800344 	movi	r2,13
  285208:	18800015 	stw	r2,0(r3)
  28520c:	00000406 	br	285220 <write+0x100>
  285210:	02852400 	call	285240 <alt_get_errno>
  285214:	1007883a 	mov	r3,r2
  285218:	00801444 	movi	r2,81
  28521c:	18800015 	stw	r2,0(r3)
  285220:	00bfffc4 	movi	r2,-1
  285224:	e0bffe15 	stw	r2,-8(fp)
  285228:	e0bffe17 	ldw	r2,-8(fp)
  28522c:	e037883a 	mov	sp,fp
  285230:	dfc00117 	ldw	ra,4(sp)
  285234:	df000017 	ldw	fp,0(sp)
  285238:	dec00204 	addi	sp,sp,8
  28523c:	f800283a 	ret

00285240 <alt_get_errno>:
  285240:	defffd04 	addi	sp,sp,-12
  285244:	dfc00215 	stw	ra,8(sp)
  285248:	df000115 	stw	fp,4(sp)
  28524c:	df000104 	addi	fp,sp,4
  285250:	00800a74 	movhi	r2,41
  285254:	10ab1804 	addi	r2,r2,-21408
  285258:	10800017 	ldw	r2,0(r2)
  28525c:	1005003a 	cmpeq	r2,r2,zero
  285260:	1000061e 	bne	r2,zero,28527c <alt_get_errno+0x3c>
  285264:	00800a74 	movhi	r2,41
  285268:	10ab1804 	addi	r2,r2,-21408
  28526c:	10800017 	ldw	r2,0(r2)
  285270:	103ee83a 	callr	r2
  285274:	e0bfff15 	stw	r2,-4(fp)
  285278:	00000306 	br	285288 <alt_get_errno+0x48>
  28527c:	00800a74 	movhi	r2,41
  285280:	10b2c704 	addi	r2,r2,-13540
  285284:	e0bfff15 	stw	r2,-4(fp)
  285288:	e0bfff17 	ldw	r2,-4(fp)
  28528c:	e037883a 	mov	sp,fp
  285290:	dfc00117 	ldw	ra,4(sp)
  285294:	df000017 	ldw	fp,0(sp)
  285298:	dec00204 	addi	sp,sp,8
  28529c:	f800283a 	ret

002852a0 <alt_irq_init>:
  2852a0:	defffd04 	addi	sp,sp,-12
  2852a4:	dfc00215 	stw	ra,8(sp)
  2852a8:	df000115 	stw	fp,4(sp)
  2852ac:	df000104 	addi	fp,sp,4
  2852b0:	e13fff15 	stw	r4,-4(fp)
  2852b4:	02882780 	call	288278 <altera_nios2_qsys_irq_init>
  2852b8:	00800044 	movi	r2,1
  2852bc:	1001703a 	wrctl	status,r2
  2852c0:	e037883a 	mov	sp,fp
  2852c4:	dfc00117 	ldw	ra,4(sp)
  2852c8:	df000017 	ldw	fp,0(sp)
  2852cc:	dec00204 	addi	sp,sp,8
  2852d0:	f800283a 	ret

002852d4 <alt_sys_init>:
  2852d4:	defffd04 	addi	sp,sp,-12
  2852d8:	dfc00215 	stw	ra,8(sp)
  2852dc:	df000115 	stw	fp,4(sp)
  2852e0:	df000104 	addi	fp,sp,4
  2852e4:	01000a74 	movhi	r4,41
  2852e8:	2126a804 	addi	r4,r4,-25952
  2852ec:	000b883a 	mov	r5,zero
  2852f0:	000d883a 	mov	r6,zero
  2852f4:	02857880 	call	285788 <altera_avalon_jtag_uart_init>
  2852f8:	01000a74 	movhi	r4,41
  2852fc:	21269e04 	addi	r4,r4,-25992
  285300:	02856080 	call	285608 <alt_dev_reg>
  285304:	01000a74 	movhi	r4,41
  285308:	212ab604 	addi	r4,r4,-21800
  28530c:	02856080 	call	285608 <alt_dev_reg>
  285310:	01000a74 	movhi	r4,41
  285314:	212ac104 	addi	r4,r4,-21756
  285318:	02809000 	call	280900 <alt_up_ps2_init>
  28531c:	01000a74 	movhi	r4,41
  285320:	212ac104 	addi	r4,r4,-21756
  285324:	02856080 	call	285608 <alt_dev_reg>
  285328:	01000a74 	movhi	r4,41
  28532c:	212acf04 	addi	r4,r4,-21700
  285330:	02856080 	call	285608 <alt_dev_reg>
  285334:	00800a74 	movhi	r2,41
  285338:	10aadc04 	addi	r2,r2,-21648
  28533c:	10800a17 	ldw	r2,40(r2)
  285340:	10800104 	addi	r2,r2,4
  285344:	10800017 	ldw	r2,0(r2)
  285348:	10ffffcc 	andi	r3,r2,65535
  28534c:	00800a74 	movhi	r2,41
  285350:	10aadc04 	addi	r2,r2,-21648
  285354:	10c00c15 	stw	r3,48(r2)
  285358:	00800a74 	movhi	r2,41
  28535c:	10aadc04 	addi	r2,r2,-21648
  285360:	10800a17 	ldw	r2,40(r2)
  285364:	10800104 	addi	r2,r2,4
  285368:	10800017 	ldw	r2,0(r2)
  28536c:	1005d43a 	srai	r2,r2,16
  285370:	10ffffcc 	andi	r3,r2,65535
  285374:	00800a74 	movhi	r2,41
  285378:	10aadc04 	addi	r2,r2,-21648
  28537c:	10c00d15 	stw	r3,52(r2)
  285380:	00800a74 	movhi	r2,41
  285384:	10aadc04 	addi	r2,r2,-21648
  285388:	10800c17 	ldw	r2,48(r2)
  28538c:	10801068 	cmpgeui	r2,r2,65
  285390:	1000081e 	bne	r2,zero,2853b4 <alt_sys_init+0xe0>
  285394:	00c00a74 	movhi	r3,41
  285398:	18eadc04 	addi	r3,r3,-21648
  28539c:	00800fc4 	movi	r2,63
  2853a0:	18800f15 	stw	r2,60(r3)
  2853a4:	00c00a74 	movhi	r3,41
  2853a8:	18eadc04 	addi	r3,r3,-21648
  2853ac:	00800184 	movi	r2,6
  2853b0:	18801015 	stw	r2,64(r3)
  2853b4:	00800a74 	movhi	r2,41
  2853b8:	10aadc04 	addi	r2,r2,-21648
  2853bc:	10800d17 	ldw	r2,52(r2)
  2853c0:	10800868 	cmpgeui	r2,r2,33
  2853c4:	1000041e 	bne	r2,zero,2853d8 <alt_sys_init+0x104>
  2853c8:	00c00a74 	movhi	r3,41
  2853cc:	18eadc04 	addi	r3,r3,-21648
  2853d0:	008007c4 	movi	r2,31
  2853d4:	18801115 	stw	r2,68(r3)
  2853d8:	01000a74 	movhi	r4,41
  2853dc:	212adc04 	addi	r4,r4,-21648
  2853e0:	02860e80 	call	2860e8 <alt_up_char_buffer_init>
  2853e4:	01000a74 	movhi	r4,41
  2853e8:	212adc04 	addi	r4,r4,-21648
  2853ec:	02856080 	call	285608 <alt_dev_reg>
  2853f0:	00800a74 	movhi	r2,41
  2853f4:	10aaee04 	addi	r2,r2,-21576
  2853f8:	10800a17 	ldw	r2,40(r2)
  2853fc:	10800017 	ldw	r2,0(r2)
  285400:	1007883a 	mov	r3,r2
  285404:	00800a74 	movhi	r2,41
  285408:	10aaee04 	addi	r2,r2,-21576
  28540c:	10c00b15 	stw	r3,44(r2)
  285410:	00800a74 	movhi	r2,41
  285414:	10aaee04 	addi	r2,r2,-21576
  285418:	10800a17 	ldw	r2,40(r2)
  28541c:	10800104 	addi	r2,r2,4
  285420:	10800017 	ldw	r2,0(r2)
  285424:	1007883a 	mov	r3,r2
  285428:	00800a74 	movhi	r2,41
  28542c:	10aaee04 	addi	r2,r2,-21576
  285430:	10c00c15 	stw	r3,48(r2)
  285434:	00800a74 	movhi	r2,41
  285438:	10aaee04 	addi	r2,r2,-21576
  28543c:	10800a17 	ldw	r2,40(r2)
  285440:	10800204 	addi	r2,r2,8
  285444:	10800017 	ldw	r2,0(r2)
  285448:	10ffffcc 	andi	r3,r2,65535
  28544c:	00800a74 	movhi	r2,41
  285450:	10aaee04 	addi	r2,r2,-21576
  285454:	10c00f15 	stw	r3,60(r2)
  285458:	00800a74 	movhi	r2,41
  28545c:	10aaee04 	addi	r2,r2,-21576
  285460:	10800a17 	ldw	r2,40(r2)
  285464:	10800204 	addi	r2,r2,8
  285468:	10800017 	ldw	r2,0(r2)
  28546c:	1005d43a 	srai	r2,r2,16
  285470:	10ffffcc 	andi	r3,r2,65535
  285474:	00800a74 	movhi	r2,41
  285478:	10aaee04 	addi	r2,r2,-21576
  28547c:	10c01015 	stw	r3,64(r2)
  285480:	00800a74 	movhi	r2,41
  285484:	10aaee04 	addi	r2,r2,-21576
  285488:	10800a17 	ldw	r2,40(r2)
  28548c:	10800304 	addi	r2,r2,12
  285490:	10800017 	ldw	r2,0(r2)
  285494:	1005d07a 	srai	r2,r2,1
  285498:	10c0004c 	andi	r3,r2,1
  28549c:	00800a74 	movhi	r2,41
  2854a0:	10aaee04 	addi	r2,r2,-21576
  2854a4:	10c00d15 	stw	r3,52(r2)
  2854a8:	00800a74 	movhi	r2,41
  2854ac:	10aaee04 	addi	r2,r2,-21576
  2854b0:	10800a17 	ldw	r2,40(r2)
  2854b4:	10800304 	addi	r2,r2,12
  2854b8:	10800017 	ldw	r2,0(r2)
  2854bc:	1005d13a 	srai	r2,r2,4
  2854c0:	10c003cc 	andi	r3,r2,15
  2854c4:	00800a74 	movhi	r2,41
  2854c8:	10aaee04 	addi	r2,r2,-21576
  2854cc:	10c00e15 	stw	r3,56(r2)
  2854d0:	00800a74 	movhi	r2,41
  2854d4:	10aaee04 	addi	r2,r2,-21576
  2854d8:	10800a17 	ldw	r2,40(r2)
  2854dc:	10800304 	addi	r2,r2,12
  2854e0:	10800017 	ldw	r2,0(r2)
  2854e4:	1005d43a 	srai	r2,r2,16
  2854e8:	1007883a 	mov	r3,r2
  2854ec:	00bfffc4 	movi	r2,-1
  2854f0:	1884703a 	and	r2,r3,r2
  2854f4:	e0bfff45 	stb	r2,-3(fp)
  2854f8:	00800a74 	movhi	r2,41
  2854fc:	10aaee04 	addi	r2,r2,-21576
  285500:	10800a17 	ldw	r2,40(r2)
  285504:	10800304 	addi	r2,r2,12
  285508:	10800017 	ldw	r2,0(r2)
  28550c:	1005d63a 	srai	r2,r2,24
  285510:	1007883a 	mov	r3,r2
  285514:	00bfffc4 	movi	r2,-1
  285518:	1884703a 	and	r2,r3,r2
  28551c:	e0bfff05 	stb	r2,-4(fp)
  285520:	00800a74 	movhi	r2,41
  285524:	10aaee04 	addi	r2,r2,-21576
  285528:	10800e17 	ldw	r2,56(r2)
  28552c:	10800058 	cmpnei	r2,r2,1
  285530:	1000041e 	bne	r2,zero,285544 <alt_sys_init+0x270>
  285534:	00800a74 	movhi	r2,41
  285538:	10aaee04 	addi	r2,r2,-21576
  28553c:	10001115 	stw	zero,68(r2)
  285540:	00000e06 	br	28557c <alt_sys_init+0x2a8>
  285544:	00800a74 	movhi	r2,41
  285548:	10aaee04 	addi	r2,r2,-21576
  28554c:	10800e17 	ldw	r2,56(r2)
  285550:	10800098 	cmpnei	r2,r2,2
  285554:	1000051e 	bne	r2,zero,28556c <alt_sys_init+0x298>
  285558:	00c00a74 	movhi	r3,41
  28555c:	18eaee04 	addi	r3,r3,-21576
  285560:	00800044 	movi	r2,1
  285564:	18801115 	stw	r2,68(r3)
  285568:	00000406 	br	28557c <alt_sys_init+0x2a8>
  28556c:	00c00a74 	movhi	r3,41
  285570:	18eaee04 	addi	r3,r3,-21576
  285574:	00800084 	movi	r2,2
  285578:	18801115 	stw	r2,68(r3)
  28557c:	e0ffff43 	ldbu	r3,-3(fp)
  285580:	00800804 	movi	r2,32
  285584:	10c7c83a 	sub	r3,r2,r3
  285588:	00bfffc4 	movi	r2,-1
  28558c:	10c6d83a 	srl	r3,r2,r3
  285590:	00800a74 	movhi	r2,41
  285594:	10aaee04 	addi	r2,r2,-21576
  285598:	10c01215 	stw	r3,72(r2)
  28559c:	e0ffff43 	ldbu	r3,-3(fp)
